
RTOS_APP.elf:     file format elf32-avr

Sections:
Idx Name          Size      VMA       LMA       File off  Algn
  0 .text         000015a2  00000000  00000000  00000094  2**1
                  CONTENTS, ALLOC, LOAD, READONLY, CODE
  1 .data         00000034  00800060  000015a2  00001636  2**0
                  CONTENTS, ALLOC, LOAD, DATA
  2 .bss          000004dd  00800094  00800094  0000166a  2**0
                  ALLOC
  3 .comment      00000030  00000000  00000000  0000166a  2**0
                  CONTENTS, READONLY
  4 .note.gnu.avr.deviceinfo 0000003c  00000000  00000000  0000169c  2**2
                  CONTENTS, READONLY
  5 .debug_info   000004e6  00000000  00000000  000016d8  2**0
                  CONTENTS, READONLY, DEBUGGING
  6 .debug_abbrev 000004a3  00000000  00000000  00001bbe  2**0
                  CONTENTS, READONLY, DEBUGGING
  7 .debug_line   00000116  00000000  00000000  00002061  2**0
                  CONTENTS, READONLY, DEBUGGING
  8 .debug_str    00000196  00000000  00000000  00002177  2**0
                  CONTENTS, READONLY, DEBUGGING

Disassembly of section .text:

00000000 <__vectors>:
       0:	0c 94 2a 00 	jmp	0x54	; 0x54 <__ctors_end>
       4:	0c 94 47 00 	jmp	0x8e	; 0x8e <__bad_interrupt>
       8:	0c 94 47 00 	jmp	0x8e	; 0x8e <__bad_interrupt>
       c:	0c 94 47 00 	jmp	0x8e	; 0x8e <__bad_interrupt>
      10:	0c 94 47 00 	jmp	0x8e	; 0x8e <__bad_interrupt>
      14:	0c 94 47 00 	jmp	0x8e	; 0x8e <__bad_interrupt>
      18:	0c 94 47 00 	jmp	0x8e	; 0x8e <__bad_interrupt>
      1c:	0c 94 61 03 	jmp	0x6c2	; 0x6c2 <__vector_7>
      20:	0c 94 47 00 	jmp	0x8e	; 0x8e <__bad_interrupt>
      24:	0c 94 47 00 	jmp	0x8e	; 0x8e <__bad_interrupt>
      28:	0c 94 47 00 	jmp	0x8e	; 0x8e <__bad_interrupt>
      2c:	0c 94 47 00 	jmp	0x8e	; 0x8e <__bad_interrupt>
      30:	0c 94 47 00 	jmp	0x8e	; 0x8e <__bad_interrupt>
      34:	0c 94 47 00 	jmp	0x8e	; 0x8e <__bad_interrupt>
      38:	0c 94 47 00 	jmp	0x8e	; 0x8e <__bad_interrupt>
      3c:	0c 94 47 00 	jmp	0x8e	; 0x8e <__bad_interrupt>
      40:	0c 94 47 00 	jmp	0x8e	; 0x8e <__bad_interrupt>
      44:	0c 94 47 00 	jmp	0x8e	; 0x8e <__bad_interrupt>
      48:	0c 94 47 00 	jmp	0x8e	; 0x8e <__bad_interrupt>
      4c:	0c 94 47 00 	jmp	0x8e	; 0x8e <__bad_interrupt>
      50:	0c 94 47 00 	jmp	0x8e	; 0x8e <__bad_interrupt>

00000054 <__ctors_end>:
      54:	11 24       	eor	r1, r1
      56:	1f be       	out	0x3f, r1	; 63
      58:	cf e5       	ldi	r28, 0x5F	; 95
      5a:	d8 e0       	ldi	r29, 0x08	; 8
      5c:	de bf       	out	0x3e, r29	; 62
      5e:	cd bf       	out	0x3d, r28	; 61

00000060 <__do_copy_data>:
      60:	10 e0       	ldi	r17, 0x00	; 0
      62:	a0 e6       	ldi	r26, 0x60	; 96
      64:	b0 e0       	ldi	r27, 0x00	; 0
      66:	e2 ea       	ldi	r30, 0xA2	; 162
      68:	f5 e1       	ldi	r31, 0x15	; 21
      6a:	02 c0       	rjmp	.+4      	; 0x70 <__do_copy_data+0x10>
      6c:	05 90       	lpm	r0, Z+
      6e:	0d 92       	st	X+, r0
      70:	a4 39       	cpi	r26, 0x94	; 148
      72:	b1 07       	cpc	r27, r17
      74:	d9 f7       	brne	.-10     	; 0x6c <__do_copy_data+0xc>

00000076 <__do_clear_bss>:
      76:	25 e0       	ldi	r18, 0x05	; 5
      78:	a4 e9       	ldi	r26, 0x94	; 148
      7a:	b0 e0       	ldi	r27, 0x00	; 0
      7c:	01 c0       	rjmp	.+2      	; 0x80 <.do_clear_bss_start>

0000007e <.do_clear_bss_loop>:
      7e:	1d 92       	st	X+, r1

00000080 <.do_clear_bss_start>:
      80:	a1 37       	cpi	r26, 0x71	; 113
      82:	b2 07       	cpc	r27, r18
      84:	e1 f7       	brne	.-8      	; 0x7e <.do_clear_bss_loop>
      86:	0e 94 6c 0a 	call	0x14d8	; 0x14d8 <main>
      8a:	0c 94 cf 0a 	jmp	0x159e	; 0x159e <_exit>

0000008e <__bad_interrupt>:
      8e:	0c 94 00 00 	jmp	0	; 0x0 <__vectors>

00000092 <Leds_Off>:
      92:	9b b3       	in	r25, 0x1b	; 27
      94:	80 95       	com	r24
      96:	98 23       	and	r25, r24
      98:	9b bb       	out	0x1b, r25	; 27
      9a:	08 95       	ret

0000009c <Leds_Init>:
      9c:	9a b3       	in	r25, 0x1a	; 26
      9e:	98 2b       	or	r25, r24
      a0:	9a bb       	out	0x1a, r25	; 26
      a2:	0c 94 49 00 	jmp	0x92	; 0x92 <Leds_Off>

000000a6 <Leds_AllOff>:
      a6:	80 e7       	ldi	r24, 0x70	; 112
      a8:	0c 94 49 00 	jmp	0x92	; 0x92 <Leds_Off>

000000ac <Leds_AllInit>:
      ac:	80 e7       	ldi	r24, 0x70	; 112
      ae:	0e 94 4e 00 	call	0x9c	; 0x9c <Leds_Init>
      b2:	0c 94 53 00 	jmp	0xa6	; 0xa6 <Leds_AllOff>

000000b6 <Key_Init>:
      b6:	84 b3       	in	r24, 0x14	; 20
      b8:	8c 61       	ori	r24, 0x1C	; 28
      ba:	84 bb       	out	0x14, r24	; 20
      bc:	85 b3       	in	r24, 0x15	; 21
      be:	8c 61       	ori	r24, 0x1C	; 28
      c0:	85 bb       	out	0x15, r24	; 21
      c2:	81 b3       	in	r24, 0x11	; 17
      c4:	8f 71       	andi	r24, 0x1F	; 31
      c6:	81 bb       	out	0x11, r24	; 17
      c8:	82 b3       	in	r24, 0x12	; 18
      ca:	80 6e       	ori	r24, 0xE0	; 224
      cc:	82 bb       	out	0x12, r24	; 18
      ce:	08 95       	ret

000000d0 <LCD_Latch>:
      d0:	da 9a       	sbi	0x1b, 2	; 27
      d2:	85 e0       	ldi	r24, 0x05	; 5
      d4:	8a 95       	dec	r24
      d6:	f1 f7       	brne	.-4      	; 0xd4 <LCD_Latch+0x4>
      d8:	00 00       	nop
      da:	da 98       	cbi	0x1b, 2	; 27
      dc:	08 95       	ret

000000de <LCD_SendCMD>:
      de:	cf 93       	push	r28
      e0:	c8 2f       	mov	r28, r24
      e2:	db 98       	cbi	0x1b, 3	; 27
      e4:	88 b3       	in	r24, 0x18	; 24
      e6:	88 7f       	andi	r24, 0xF8	; 248
      e8:	88 bb       	out	0x18, r24	; 24
      ea:	98 b3       	in	r25, 0x18	; 24
      ec:	8c 2f       	mov	r24, r28
      ee:	82 95       	swap	r24
      f0:	8f 70       	andi	r24, 0x0F	; 15
      f2:	28 2f       	mov	r18, r24
      f4:	27 70       	andi	r18, 0x07	; 7
      f6:	92 2b       	or	r25, r18
      f8:	98 bb       	out	0x18, r25	; 24
      fa:	c4 98       	cbi	0x18, 4	; 24
      fc:	98 b3       	in	r25, 0x18	; 24
      fe:	88 0f       	add	r24, r24
     100:	80 71       	andi	r24, 0x10	; 16
     102:	89 2b       	or	r24, r25
     104:	88 bb       	out	0x18, r24	; 24
     106:	0e 94 68 00 	call	0xd0	; 0xd0 <LCD_Latch>
     10a:	88 b3       	in	r24, 0x18	; 24
     10c:	88 7f       	andi	r24, 0xF8	; 248
     10e:	88 bb       	out	0x18, r24	; 24
     110:	88 b3       	in	r24, 0x18	; 24
     112:	9c 2f       	mov	r25, r28
     114:	97 70       	andi	r25, 0x07	; 7
     116:	89 2b       	or	r24, r25
     118:	88 bb       	out	0x18, r24	; 24
     11a:	c4 98       	cbi	0x18, 4	; 24
     11c:	88 b3       	in	r24, 0x18	; 24
     11e:	cc 0f       	add	r28, r28
     120:	c0 71       	andi	r28, 0x10	; 16
     122:	c8 2b       	or	r28, r24
     124:	c8 bb       	out	0x18, r28	; 24
     126:	0e 94 68 00 	call	0xd0	; 0xd0 <LCD_Latch>
     12a:	85 ed       	ldi	r24, 0xD5	; 213
     12c:	8a 95       	dec	r24
     12e:	f1 f7       	brne	.-4      	; 0x12c <LCD_SendCMD+0x4e>
     130:	00 00       	nop
     132:	cf 91       	pop	r28
     134:	08 95       	ret

00000136 <LCD_GotoXY>:
     136:	90 e4       	ldi	r25, 0x40	; 64
     138:	89 9f       	mul	r24, r25
     13a:	60 0d       	add	r22, r0
     13c:	11 24       	eor	r1, r1
     13e:	86 2f       	mov	r24, r22
     140:	81 5c       	subi	r24, 0xC1	; 193
     142:	0c 94 6f 00 	jmp	0xde	; 0xde <LCD_SendCMD>

00000146 <LCD_SendData>:
     146:	cf 93       	push	r28
     148:	c8 2f       	mov	r28, r24
     14a:	db 9a       	sbi	0x1b, 3	; 27
     14c:	88 b3       	in	r24, 0x18	; 24
     14e:	88 7f       	andi	r24, 0xF8	; 248
     150:	88 bb       	out	0x18, r24	; 24
     152:	98 b3       	in	r25, 0x18	; 24
     154:	8c 2f       	mov	r24, r28
     156:	82 95       	swap	r24
     158:	8f 70       	andi	r24, 0x0F	; 15
     15a:	28 2f       	mov	r18, r24
     15c:	27 70       	andi	r18, 0x07	; 7
     15e:	92 2b       	or	r25, r18
     160:	98 bb       	out	0x18, r25	; 24
     162:	c4 98       	cbi	0x18, 4	; 24
     164:	98 b3       	in	r25, 0x18	; 24
     166:	88 0f       	add	r24, r24
     168:	80 71       	andi	r24, 0x10	; 16
     16a:	89 2b       	or	r24, r25
     16c:	88 bb       	out	0x18, r24	; 24
     16e:	0e 94 68 00 	call	0xd0	; 0xd0 <LCD_Latch>
     172:	88 b3       	in	r24, 0x18	; 24
     174:	88 7f       	andi	r24, 0xF8	; 248
     176:	88 bb       	out	0x18, r24	; 24
     178:	88 b3       	in	r24, 0x18	; 24
     17a:	9c 2f       	mov	r25, r28
     17c:	97 70       	andi	r25, 0x07	; 7
     17e:	89 2b       	or	r24, r25
     180:	88 bb       	out	0x18, r24	; 24
     182:	c4 98       	cbi	0x18, 4	; 24
     184:	88 b3       	in	r24, 0x18	; 24
     186:	cc 0f       	add	r28, r28
     188:	c0 71       	andi	r28, 0x10	; 16
     18a:	c8 2b       	or	r28, r24
     18c:	c8 bb       	out	0x18, r28	; 24
     18e:	0e 94 68 00 	call	0xd0	; 0xd0 <LCD_Latch>
     192:	85 ed       	ldi	r24, 0xD5	; 213
     194:	8a 95       	dec	r24
     196:	f1 f7       	brne	.-4      	; 0x194 <LCD_SendData+0x4e>
     198:	00 00       	nop
     19a:	cf 91       	pop	r28
     19c:	08 95       	ret

0000019e <LCD_RetHome>:
     19e:	82 e0       	ldi	r24, 0x02	; 2
     1a0:	0e 94 6f 00 	call	0xde	; 0xde <LCD_SendCMD>
     1a4:	8f e1       	ldi	r24, 0x1F	; 31
     1a6:	9e e4       	ldi	r25, 0x4E	; 78
     1a8:	01 97       	sbiw	r24, 0x01	; 1
     1aa:	f1 f7       	brne	.-4      	; 0x1a8 <LCD_RetHome+0xa>
     1ac:	00 c0       	rjmp	.+0      	; 0x1ae <LCD_RetHome+0x10>
     1ae:	00 00       	nop
     1b0:	08 95       	ret

000001b2 <LCD_Clear>:
     1b2:	81 e0       	ldi	r24, 0x01	; 1
     1b4:	0e 94 6f 00 	call	0xde	; 0xde <LCD_SendCMD>
     1b8:	8f e1       	ldi	r24, 0x1F	; 31
     1ba:	9e e4       	ldi	r25, 0x4E	; 78
     1bc:	01 97       	sbiw	r24, 0x01	; 1
     1be:	f1 f7       	brne	.-4      	; 0x1bc <LCD_Clear+0xa>
     1c0:	00 c0       	rjmp	.+0      	; 0x1c2 <LCD_Clear+0x10>
     1c2:	00 00       	nop
     1c4:	08 95       	ret

000001c6 <LCD_Init>:
     1c6:	87 b3       	in	r24, 0x17	; 23
     1c8:	87 60       	ori	r24, 0x07	; 7
     1ca:	87 bb       	out	0x17, r24	; 23
     1cc:	bc 9a       	sbi	0x17, 4	; 23
     1ce:	d3 9a       	sbi	0x1a, 3	; 26
     1d0:	d2 9a       	sbi	0x1a, 2	; 26
     1d2:	2f ef       	ldi	r18, 0xFF	; 255
     1d4:	89 ef       	ldi	r24, 0xF9	; 249
     1d6:	90 e0       	ldi	r25, 0x00	; 0
     1d8:	21 50       	subi	r18, 0x01	; 1
     1da:	80 40       	sbci	r24, 0x00	; 0
     1dc:	90 40       	sbci	r25, 0x00	; 0
     1de:	e1 f7       	brne	.-8      	; 0x1d8 <LCD_Init+0x12>
     1e0:	00 c0       	rjmp	.+0      	; 0x1e2 <LCD_Init+0x1c>
     1e2:	00 00       	nop
     1e4:	0e 94 cf 00 	call	0x19e	; 0x19e <LCD_RetHome>
     1e8:	88 e2       	ldi	r24, 0x28	; 40
     1ea:	0e 94 6f 00 	call	0xde	; 0xde <LCD_SendCMD>
     1ee:	8c e0       	ldi	r24, 0x0C	; 12
     1f0:	0e 94 6f 00 	call	0xde	; 0xde <LCD_SendCMD>
     1f4:	86 e0       	ldi	r24, 0x06	; 6
     1f6:	0e 94 6f 00 	call	0xde	; 0xde <LCD_SendCMD>
     1fa:	0c 94 d9 00 	jmp	0x1b2	; 0x1b2 <LCD_Clear>

000001fe <LCD_DispStr>:
     1fe:	0f 93       	push	r16
     200:	1f 93       	push	r17
     202:	cf 93       	push	r28
     204:	8c 01       	movw	r16, r24
     206:	c0 e0       	ldi	r28, 0x00	; 0
     208:	f8 01       	movw	r30, r16
     20a:	ec 0f       	add	r30, r28
     20c:	f1 1d       	adc	r31, r1
     20e:	80 81       	ld	r24, Z
     210:	88 23       	and	r24, r24
     212:	21 f0       	breq	.+8      	; 0x21c <LCD_DispStr+0x1e>
     214:	0e 94 a3 00 	call	0x146	; 0x146 <LCD_SendData>
     218:	cf 5f       	subi	r28, 0xFF	; 255
     21a:	f6 cf       	rjmp	.-20     	; 0x208 <LCD_DispStr+0xa>
     21c:	cf 91       	pop	r28
     21e:	1f 91       	pop	r17
     220:	0f 91       	pop	r16
     222:	08 95       	ret

00000224 <LCD_DispStrXY>:
     224:	cf 93       	push	r28
     226:	df 93       	push	r29
     228:	ea 01       	movw	r28, r20
     22a:	0e 94 9b 00 	call	0x136	; 0x136 <LCD_GotoXY>
     22e:	ce 01       	movw	r24, r28
     230:	df 91       	pop	r29
     232:	cf 91       	pop	r28
     234:	0c 94 ff 00 	jmp	0x1fe	; 0x1fe <LCD_DispStr>

00000238 <Uart_Init>:
     238:	dc 01       	movw	r26, r24
     23a:	cb 01       	movw	r24, r22
     23c:	24 e0       	ldi	r18, 0x04	; 4
     23e:	88 0f       	add	r24, r24
     240:	99 1f       	adc	r25, r25
     242:	aa 1f       	adc	r26, r26
     244:	bb 1f       	adc	r27, r27
     246:	2a 95       	dec	r18
     248:	d1 f7       	brne	.-12     	; 0x23e <Uart_Init+0x6>
     24a:	9c 01       	movw	r18, r24
     24c:	ad 01       	movw	r20, r26
     24e:	21 50       	subi	r18, 0x01	; 1
     250:	31 09       	sbc	r19, r1
     252:	41 09       	sbc	r20, r1
     254:	51 09       	sbc	r21, r1
     256:	60 e0       	ldi	r22, 0x00	; 0
     258:	74 e2       	ldi	r23, 0x24	; 36
     25a:	84 ef       	ldi	r24, 0xF4	; 244
     25c:	90 e0       	ldi	r25, 0x00	; 0
     25e:	0e 94 a4 0a 	call	0x1548	; 0x1548 <__udivmodsi4>
     262:	83 2f       	mov	r24, r19
     264:	99 27       	eor	r25, r25
     266:	80 bd       	out	0x20, r24	; 32
     268:	29 b9       	out	0x09, r18	; 9
     26a:	88 e1       	ldi	r24, 0x18	; 24
     26c:	8a b9       	out	0x0a, r24	; 10
     26e:	86 e8       	ldi	r24, 0x86	; 134
     270:	80 bd       	out	0x20, r24	; 32
     272:	08 95       	ret

00000274 <Uart_SendByte>:
     274:	5d 9b       	sbis	0x0b, 5	; 11
     276:	fe cf       	rjmp	.-4      	; 0x274 <Uart_SendByte>
     278:	8c b9       	out	0x0c, r24	; 12
     27a:	08 95       	ret

0000027c <Uart_SendStr>:
     27c:	cf 93       	push	r28
     27e:	df 93       	push	r29
     280:	ec 01       	movw	r28, r24
     282:	89 91       	ld	r24, Y+
     284:	88 23       	and	r24, r24
     286:	19 f0       	breq	.+6      	; 0x28e <Uart_SendStr+0x12>
     288:	0e 94 3a 01 	call	0x274	; 0x274 <Uart_SendByte>
     28c:	fa cf       	rjmp	.-12     	; 0x282 <Uart_SendStr+0x6>
     28e:	df 91       	pop	r29
     290:	cf 91       	pop	r28
     292:	08 95       	ret

00000294 <pvPortMalloc>:
     294:	cf 93       	push	r28
     296:	df 93       	push	r29
     298:	ec 01       	movw	r28, r24
     29a:	0e 94 0e 07 	call	0xe1c	; 0xe1c <vTaskSuspendAll>
     29e:	80 91 94 00 	lds	r24, 0x0094	; 0x800094 <__data_end>
     2a2:	90 91 95 00 	lds	r25, 0x0095	; 0x800095 <__data_end+0x1>
     2a6:	89 2b       	or	r24, r25
     2a8:	31 f4       	brne	.+12     	; 0x2b6 <pvPortMalloc+0x22>
     2aa:	89 e9       	ldi	r24, 0x99	; 153
     2ac:	90 e0       	ldi	r25, 0x00	; 0
     2ae:	90 93 95 00 	sts	0x0095, r25	; 0x800095 <__data_end+0x1>
     2b2:	80 93 94 00 	sts	0x0094, r24	; 0x800094 <__data_end>
     2b6:	20 91 96 00 	lds	r18, 0x0096	; 0x800096 <xNextFreeByte>
     2ba:	30 91 97 00 	lds	r19, 0x0097	; 0x800097 <xNextFreeByte+0x1>
     2be:	c9 01       	movw	r24, r18
     2c0:	8c 0f       	add	r24, r28
     2c2:	9d 1f       	adc	r25, r29
     2c4:	8d 37       	cpi	r24, 0x7D	; 125
     2c6:	44 e0       	ldi	r20, 0x04	; 4
     2c8:	94 07       	cpc	r25, r20
     2ca:	70 f4       	brcc	.+28     	; 0x2e8 <pvPortMalloc+0x54>
     2cc:	28 17       	cp	r18, r24
     2ce:	39 07       	cpc	r19, r25
     2d0:	58 f4       	brcc	.+22     	; 0x2e8 <pvPortMalloc+0x54>
     2d2:	c0 91 94 00 	lds	r28, 0x0094	; 0x800094 <__data_end>
     2d6:	d0 91 95 00 	lds	r29, 0x0095	; 0x800095 <__data_end+0x1>
     2da:	c2 0f       	add	r28, r18
     2dc:	d3 1f       	adc	r29, r19
     2de:	90 93 97 00 	sts	0x0097, r25	; 0x800097 <xNextFreeByte+0x1>
     2e2:	80 93 96 00 	sts	0x0096, r24	; 0x800096 <xNextFreeByte>
     2e6:	02 c0       	rjmp	.+4      	; 0x2ec <pvPortMalloc+0x58>
     2e8:	c0 e0       	ldi	r28, 0x00	; 0
     2ea:	d0 e0       	ldi	r29, 0x00	; 0
     2ec:	0e 94 c3 07 	call	0xf86	; 0xf86 <xTaskResumeAll>
     2f0:	ce 01       	movw	r24, r28
     2f2:	df 91       	pop	r29
     2f4:	cf 91       	pop	r28
     2f6:	08 95       	ret

000002f8 <vPortFree>:
     2f8:	08 95       	ret

000002fa <vListInitialise>:
     2fa:	fc 01       	movw	r30, r24
     2fc:	03 96       	adiw	r24, 0x03	; 3
     2fe:	92 83       	std	Z+2, r25	; 0x02
     300:	81 83       	std	Z+1, r24	; 0x01
     302:	2f ef       	ldi	r18, 0xFF	; 255
     304:	3f ef       	ldi	r19, 0xFF	; 255
     306:	34 83       	std	Z+4, r19	; 0x04
     308:	23 83       	std	Z+3, r18	; 0x03
     30a:	96 83       	std	Z+6, r25	; 0x06
     30c:	85 83       	std	Z+5, r24	; 0x05
     30e:	90 87       	std	Z+8, r25	; 0x08
     310:	87 83       	std	Z+7, r24	; 0x07
     312:	10 82       	st	Z, r1
     314:	08 95       	ret

00000316 <vListInitialiseItem>:
     316:	fc 01       	movw	r30, r24
     318:	11 86       	std	Z+9, r1	; 0x09
     31a:	10 86       	std	Z+8, r1	; 0x08
     31c:	08 95       	ret

0000031e <vListInsertEnd>:
     31e:	cf 93       	push	r28
     320:	df 93       	push	r29
     322:	9c 01       	movw	r18, r24
     324:	fb 01       	movw	r30, r22
     326:	dc 01       	movw	r26, r24
     328:	11 96       	adiw	r26, 0x01	; 1
     32a:	cd 91       	ld	r28, X+
     32c:	dc 91       	ld	r29, X
     32e:	12 97       	sbiw	r26, 0x02	; 2
     330:	d3 83       	std	Z+3, r29	; 0x03
     332:	c2 83       	std	Z+2, r28	; 0x02
     334:	8c 81       	ldd	r24, Y+4	; 0x04
     336:	9d 81       	ldd	r25, Y+5	; 0x05
     338:	95 83       	std	Z+5, r25	; 0x05
     33a:	84 83       	std	Z+4, r24	; 0x04
     33c:	8c 81       	ldd	r24, Y+4	; 0x04
     33e:	9d 81       	ldd	r25, Y+5	; 0x05
     340:	dc 01       	movw	r26, r24
     342:	13 96       	adiw	r26, 0x03	; 3
     344:	7c 93       	st	X, r23
     346:	6e 93       	st	-X, r22
     348:	12 97       	sbiw	r26, 0x02	; 2
     34a:	7d 83       	std	Y+5, r23	; 0x05
     34c:	6c 83       	std	Y+4, r22	; 0x04
     34e:	31 87       	std	Z+9, r19	; 0x09
     350:	20 87       	std	Z+8, r18	; 0x08
     352:	f9 01       	movw	r30, r18
     354:	80 81       	ld	r24, Z
     356:	8f 5f       	subi	r24, 0xFF	; 255
     358:	80 83       	st	Z, r24
     35a:	df 91       	pop	r29
     35c:	cf 91       	pop	r28
     35e:	08 95       	ret

00000360 <vListInsert>:
     360:	0f 93       	push	r16
     362:	1f 93       	push	r17
     364:	cf 93       	push	r28
     366:	df 93       	push	r29
     368:	8c 01       	movw	r16, r24
     36a:	fb 01       	movw	r30, r22
     36c:	80 81       	ld	r24, Z
     36e:	91 81       	ldd	r25, Z+1	; 0x01
     370:	8f 3f       	cpi	r24, 0xFF	; 255
     372:	2f ef       	ldi	r18, 0xFF	; 255
     374:	92 07       	cpc	r25, r18
     376:	21 f4       	brne	.+8      	; 0x380 <vListInsert+0x20>
     378:	e8 01       	movw	r28, r16
     37a:	af 81       	ldd	r26, Y+7	; 0x07
     37c:	b8 85       	ldd	r27, Y+8	; 0x08
     37e:	0e c0       	rjmp	.+28     	; 0x39c <vListInsert+0x3c>
     380:	d8 01       	movw	r26, r16
     382:	13 96       	adiw	r26, 0x03	; 3
     384:	12 96       	adiw	r26, 0x02	; 2
     386:	2d 91       	ld	r18, X+
     388:	3c 91       	ld	r19, X
     38a:	13 97       	sbiw	r26, 0x03	; 3
     38c:	e9 01       	movw	r28, r18
     38e:	48 81       	ld	r20, Y
     390:	59 81       	ldd	r21, Y+1	; 0x01
     392:	84 17       	cp	r24, r20
     394:	95 07       	cpc	r25, r21
     396:	10 f0       	brcs	.+4      	; 0x39c <vListInsert+0x3c>
     398:	d9 01       	movw	r26, r18
     39a:	f4 cf       	rjmp	.-24     	; 0x384 <vListInsert+0x24>
     39c:	12 96       	adiw	r26, 0x02	; 2
     39e:	8d 91       	ld	r24, X+
     3a0:	9c 91       	ld	r25, X
     3a2:	13 97       	sbiw	r26, 0x03	; 3
     3a4:	93 83       	std	Z+3, r25	; 0x03
     3a6:	82 83       	std	Z+2, r24	; 0x02
     3a8:	ec 01       	movw	r28, r24
     3aa:	fd 83       	std	Y+5, r31	; 0x05
     3ac:	ec 83       	std	Y+4, r30	; 0x04
     3ae:	b5 83       	std	Z+5, r27	; 0x05
     3b0:	a4 83       	std	Z+4, r26	; 0x04
     3b2:	13 96       	adiw	r26, 0x03	; 3
     3b4:	fc 93       	st	X, r31
     3b6:	ee 93       	st	-X, r30
     3b8:	12 97       	sbiw	r26, 0x02	; 2
     3ba:	11 87       	std	Z+9, r17	; 0x09
     3bc:	00 87       	std	Z+8, r16	; 0x08
     3be:	f8 01       	movw	r30, r16
     3c0:	80 81       	ld	r24, Z
     3c2:	8f 5f       	subi	r24, 0xFF	; 255
     3c4:	80 83       	st	Z, r24
     3c6:	df 91       	pop	r29
     3c8:	cf 91       	pop	r28
     3ca:	1f 91       	pop	r17
     3cc:	0f 91       	pop	r16
     3ce:	08 95       	ret

000003d0 <uxListRemove>:
     3d0:	cf 93       	push	r28
     3d2:	df 93       	push	r29
     3d4:	fc 01       	movw	r30, r24
     3d6:	a0 85       	ldd	r26, Z+8	; 0x08
     3d8:	b1 85       	ldd	r27, Z+9	; 0x09
     3da:	82 81       	ldd	r24, Z+2	; 0x02
     3dc:	93 81       	ldd	r25, Z+3	; 0x03
     3de:	24 81       	ldd	r18, Z+4	; 0x04
     3e0:	35 81       	ldd	r19, Z+5	; 0x05
     3e2:	ec 01       	movw	r28, r24
     3e4:	3d 83       	std	Y+5, r19	; 0x05
     3e6:	2c 83       	std	Y+4, r18	; 0x04
     3e8:	c4 81       	ldd	r28, Z+4	; 0x04
     3ea:	d5 81       	ldd	r29, Z+5	; 0x05
     3ec:	9b 83       	std	Y+3, r25	; 0x03
     3ee:	8a 83       	std	Y+2, r24	; 0x02
     3f0:	11 96       	adiw	r26, 0x01	; 1
     3f2:	8d 91       	ld	r24, X+
     3f4:	9c 91       	ld	r25, X
     3f6:	12 97       	sbiw	r26, 0x02	; 2
     3f8:	e8 17       	cp	r30, r24
     3fa:	f9 07       	cpc	r31, r25
     3fc:	21 f4       	brne	.+8      	; 0x406 <__EEPROM_REGION_LENGTH__+0x6>
     3fe:	12 96       	adiw	r26, 0x02	; 2
     400:	dc 93       	st	X, r29
     402:	ce 93       	st	-X, r28
     404:	11 97       	sbiw	r26, 0x01	; 1
     406:	11 86       	std	Z+9, r1	; 0x09
     408:	10 86       	std	Z+8, r1	; 0x08
     40a:	8c 91       	ld	r24, X
     40c:	81 50       	subi	r24, 0x01	; 1
     40e:	8c 93       	st	X, r24
     410:	df 91       	pop	r29
     412:	cf 91       	pop	r28
     414:	08 95       	ret

00000416 <pxPortInitialiseStack>:
     416:	31 e1       	ldi	r19, 0x11	; 17
     418:	fc 01       	movw	r30, r24
     41a:	30 83       	st	Z, r19
     41c:	31 97       	sbiw	r30, 0x01	; 1
     41e:	22 e2       	ldi	r18, 0x22	; 34
     420:	20 83       	st	Z, r18
     422:	31 97       	sbiw	r30, 0x01	; 1
     424:	a3 e3       	ldi	r26, 0x33	; 51
     426:	a0 83       	st	Z, r26
     428:	31 97       	sbiw	r30, 0x01	; 1
     42a:	60 83       	st	Z, r22
     42c:	31 97       	sbiw	r30, 0x01	; 1
     42e:	70 83       	st	Z, r23
     430:	31 97       	sbiw	r30, 0x01	; 1
     432:	10 82       	st	Z, r1
     434:	31 97       	sbiw	r30, 0x01	; 1
     436:	60 e8       	ldi	r22, 0x80	; 128
     438:	60 83       	st	Z, r22
     43a:	31 97       	sbiw	r30, 0x01	; 1
     43c:	10 82       	st	Z, r1
     43e:	31 97       	sbiw	r30, 0x01	; 1
     440:	62 e0       	ldi	r22, 0x02	; 2
     442:	60 83       	st	Z, r22
     444:	31 97       	sbiw	r30, 0x01	; 1
     446:	63 e0       	ldi	r22, 0x03	; 3
     448:	60 83       	st	Z, r22
     44a:	31 97       	sbiw	r30, 0x01	; 1
     44c:	64 e0       	ldi	r22, 0x04	; 4
     44e:	60 83       	st	Z, r22
     450:	31 97       	sbiw	r30, 0x01	; 1
     452:	65 e0       	ldi	r22, 0x05	; 5
     454:	60 83       	st	Z, r22
     456:	31 97       	sbiw	r30, 0x01	; 1
     458:	66 e0       	ldi	r22, 0x06	; 6
     45a:	60 83       	st	Z, r22
     45c:	31 97       	sbiw	r30, 0x01	; 1
     45e:	67 e0       	ldi	r22, 0x07	; 7
     460:	60 83       	st	Z, r22
     462:	31 97       	sbiw	r30, 0x01	; 1
     464:	68 e0       	ldi	r22, 0x08	; 8
     466:	60 83       	st	Z, r22
     468:	31 97       	sbiw	r30, 0x01	; 1
     46a:	69 e0       	ldi	r22, 0x09	; 9
     46c:	60 83       	st	Z, r22
     46e:	31 97       	sbiw	r30, 0x01	; 1
     470:	60 e1       	ldi	r22, 0x10	; 16
     472:	60 83       	st	Z, r22
     474:	31 97       	sbiw	r30, 0x01	; 1
     476:	30 83       	st	Z, r19
     478:	31 97       	sbiw	r30, 0x01	; 1
     47a:	32 e1       	ldi	r19, 0x12	; 18
     47c:	30 83       	st	Z, r19
     47e:	31 97       	sbiw	r30, 0x01	; 1
     480:	33 e1       	ldi	r19, 0x13	; 19
     482:	30 83       	st	Z, r19
     484:	31 97       	sbiw	r30, 0x01	; 1
     486:	34 e1       	ldi	r19, 0x14	; 20
     488:	30 83       	st	Z, r19
     48a:	31 97       	sbiw	r30, 0x01	; 1
     48c:	35 e1       	ldi	r19, 0x15	; 21
     48e:	30 83       	st	Z, r19
     490:	31 97       	sbiw	r30, 0x01	; 1
     492:	36 e1       	ldi	r19, 0x16	; 22
     494:	30 83       	st	Z, r19
     496:	31 97       	sbiw	r30, 0x01	; 1
     498:	37 e1       	ldi	r19, 0x17	; 23
     49a:	30 83       	st	Z, r19
     49c:	31 97       	sbiw	r30, 0x01	; 1
     49e:	38 e1       	ldi	r19, 0x18	; 24
     4a0:	30 83       	st	Z, r19
     4a2:	31 97       	sbiw	r30, 0x01	; 1
     4a4:	39 e1       	ldi	r19, 0x19	; 25
     4a6:	30 83       	st	Z, r19
     4a8:	31 97       	sbiw	r30, 0x01	; 1
     4aa:	30 e2       	ldi	r19, 0x20	; 32
     4ac:	30 83       	st	Z, r19
     4ae:	31 97       	sbiw	r30, 0x01	; 1
     4b0:	31 e2       	ldi	r19, 0x21	; 33
     4b2:	30 83       	st	Z, r19
     4b4:	31 97       	sbiw	r30, 0x01	; 1
     4b6:	20 83       	st	Z, r18
     4b8:	31 97       	sbiw	r30, 0x01	; 1
     4ba:	23 e2       	ldi	r18, 0x23	; 35
     4bc:	20 83       	st	Z, r18
     4be:	31 97       	sbiw	r30, 0x01	; 1
     4c0:	40 83       	st	Z, r20
     4c2:	31 97       	sbiw	r30, 0x01	; 1
     4c4:	50 83       	st	Z, r21
     4c6:	31 97       	sbiw	r30, 0x01	; 1
     4c8:	26 e2       	ldi	r18, 0x26	; 38
     4ca:	20 83       	st	Z, r18
     4cc:	31 97       	sbiw	r30, 0x01	; 1
     4ce:	27 e2       	ldi	r18, 0x27	; 39
     4d0:	20 83       	st	Z, r18
     4d2:	31 97       	sbiw	r30, 0x01	; 1
     4d4:	28 e2       	ldi	r18, 0x28	; 40
     4d6:	20 83       	st	Z, r18
     4d8:	31 97       	sbiw	r30, 0x01	; 1
     4da:	29 e2       	ldi	r18, 0x29	; 41
     4dc:	20 83       	st	Z, r18
     4de:	31 97       	sbiw	r30, 0x01	; 1
     4e0:	20 e3       	ldi	r18, 0x30	; 48
     4e2:	20 83       	st	Z, r18
     4e4:	31 97       	sbiw	r30, 0x01	; 1
     4e6:	21 e3       	ldi	r18, 0x31	; 49
     4e8:	20 83       	st	Z, r18
     4ea:	86 97       	sbiw	r24, 0x26	; 38
     4ec:	08 95       	ret

000004ee <xPortStartScheduler>:
     4ee:	1b bc       	out	0x2b, r1	; 43
     4f0:	89 ef       	ldi	r24, 0xF9	; 249
     4f2:	8a bd       	out	0x2a, r24	; 42
     4f4:	8b e0       	ldi	r24, 0x0B	; 11
     4f6:	8e bd       	out	0x2e, r24	; 46
     4f8:	89 b7       	in	r24, 0x39	; 57
     4fa:	80 61       	ori	r24, 0x10	; 16
     4fc:	89 bf       	out	0x39, r24	; 57
     4fe:	a0 91 6d 05 	lds	r26, 0x056D	; 0x80056d <pxCurrentTCB>
     502:	b0 91 6e 05 	lds	r27, 0x056E	; 0x80056e <pxCurrentTCB+0x1>
     506:	cd 91       	ld	r28, X+
     508:	cd bf       	out	0x3d, r28	; 61
     50a:	dd 91       	ld	r29, X+
     50c:	de bf       	out	0x3e, r29	; 62
     50e:	ff 91       	pop	r31
     510:	ef 91       	pop	r30
     512:	df 91       	pop	r29
     514:	cf 91       	pop	r28
     516:	bf 91       	pop	r27
     518:	af 91       	pop	r26
     51a:	9f 91       	pop	r25
     51c:	8f 91       	pop	r24
     51e:	7f 91       	pop	r23
     520:	6f 91       	pop	r22
     522:	5f 91       	pop	r21
     524:	4f 91       	pop	r20
     526:	3f 91       	pop	r19
     528:	2f 91       	pop	r18
     52a:	1f 91       	pop	r17
     52c:	0f 91       	pop	r16
     52e:	ff 90       	pop	r15
     530:	ef 90       	pop	r14
     532:	df 90       	pop	r13
     534:	cf 90       	pop	r12
     536:	bf 90       	pop	r11
     538:	af 90       	pop	r10
     53a:	9f 90       	pop	r9
     53c:	8f 90       	pop	r8
     53e:	7f 90       	pop	r7
     540:	6f 90       	pop	r6
     542:	5f 90       	pop	r5
     544:	4f 90       	pop	r4
     546:	3f 90       	pop	r3
     548:	2f 90       	pop	r2
     54a:	1f 90       	pop	r1
     54c:	0f 90       	pop	r0
     54e:	0f be       	out	0x3f, r0	; 63
     550:	0f 90       	pop	r0
     552:	08 95       	ret
     554:	81 e0       	ldi	r24, 0x01	; 1
     556:	08 95       	ret

00000558 <vPortYield>:
     558:	0f 92       	push	r0
     55a:	0f b6       	in	r0, 0x3f	; 63
     55c:	f8 94       	cli
     55e:	0f 92       	push	r0
     560:	1f 92       	push	r1
     562:	11 24       	eor	r1, r1
     564:	2f 92       	push	r2
     566:	3f 92       	push	r3
     568:	4f 92       	push	r4
     56a:	5f 92       	push	r5
     56c:	6f 92       	push	r6
     56e:	7f 92       	push	r7
     570:	8f 92       	push	r8
     572:	9f 92       	push	r9
     574:	af 92       	push	r10
     576:	bf 92       	push	r11
     578:	cf 92       	push	r12
     57a:	df 92       	push	r13
     57c:	ef 92       	push	r14
     57e:	ff 92       	push	r15
     580:	0f 93       	push	r16
     582:	1f 93       	push	r17
     584:	2f 93       	push	r18
     586:	3f 93       	push	r19
     588:	4f 93       	push	r20
     58a:	5f 93       	push	r21
     58c:	6f 93       	push	r22
     58e:	7f 93       	push	r23
     590:	8f 93       	push	r24
     592:	9f 93       	push	r25
     594:	af 93       	push	r26
     596:	bf 93       	push	r27
     598:	cf 93       	push	r28
     59a:	df 93       	push	r29
     59c:	ef 93       	push	r30
     59e:	ff 93       	push	r31
     5a0:	a0 91 6d 05 	lds	r26, 0x056D	; 0x80056d <pxCurrentTCB>
     5a4:	b0 91 6e 05 	lds	r27, 0x056E	; 0x80056e <pxCurrentTCB+0x1>
     5a8:	0d b6       	in	r0, 0x3d	; 61
     5aa:	0d 92       	st	X+, r0
     5ac:	0e b6       	in	r0, 0x3e	; 62
     5ae:	0d 92       	st	X+, r0
     5b0:	0e 94 88 08 	call	0x1110	; 0x1110 <vTaskSwitchContext>
     5b4:	a0 91 6d 05 	lds	r26, 0x056D	; 0x80056d <pxCurrentTCB>
     5b8:	b0 91 6e 05 	lds	r27, 0x056E	; 0x80056e <pxCurrentTCB+0x1>
     5bc:	cd 91       	ld	r28, X+
     5be:	cd bf       	out	0x3d, r28	; 61
     5c0:	dd 91       	ld	r29, X+
     5c2:	de bf       	out	0x3e, r29	; 62
     5c4:	ff 91       	pop	r31
     5c6:	ef 91       	pop	r30
     5c8:	df 91       	pop	r29
     5ca:	cf 91       	pop	r28
     5cc:	bf 91       	pop	r27
     5ce:	af 91       	pop	r26
     5d0:	9f 91       	pop	r25
     5d2:	8f 91       	pop	r24
     5d4:	7f 91       	pop	r23
     5d6:	6f 91       	pop	r22
     5d8:	5f 91       	pop	r21
     5da:	4f 91       	pop	r20
     5dc:	3f 91       	pop	r19
     5de:	2f 91       	pop	r18
     5e0:	1f 91       	pop	r17
     5e2:	0f 91       	pop	r16
     5e4:	ff 90       	pop	r15
     5e6:	ef 90       	pop	r14
     5e8:	df 90       	pop	r13
     5ea:	cf 90       	pop	r12
     5ec:	bf 90       	pop	r11
     5ee:	af 90       	pop	r10
     5f0:	9f 90       	pop	r9
     5f2:	8f 90       	pop	r8
     5f4:	7f 90       	pop	r7
     5f6:	6f 90       	pop	r6
     5f8:	5f 90       	pop	r5
     5fa:	4f 90       	pop	r4
     5fc:	3f 90       	pop	r3
     5fe:	2f 90       	pop	r2
     600:	1f 90       	pop	r1
     602:	0f 90       	pop	r0
     604:	0f be       	out	0x3f, r0	; 63
     606:	0f 90       	pop	r0
     608:	08 95       	ret

0000060a <vPortYieldFromTick>:
     60a:	0f 92       	push	r0
     60c:	0f b6       	in	r0, 0x3f	; 63
     60e:	f8 94       	cli
     610:	0f 92       	push	r0
     612:	1f 92       	push	r1
     614:	11 24       	eor	r1, r1
     616:	2f 92       	push	r2
     618:	3f 92       	push	r3
     61a:	4f 92       	push	r4
     61c:	5f 92       	push	r5
     61e:	6f 92       	push	r6
     620:	7f 92       	push	r7
     622:	8f 92       	push	r8
     624:	9f 92       	push	r9
     626:	af 92       	push	r10
     628:	bf 92       	push	r11
     62a:	cf 92       	push	r12
     62c:	df 92       	push	r13
     62e:	ef 92       	push	r14
     630:	ff 92       	push	r15
     632:	0f 93       	push	r16
     634:	1f 93       	push	r17
     636:	2f 93       	push	r18
     638:	3f 93       	push	r19
     63a:	4f 93       	push	r20
     63c:	5f 93       	push	r21
     63e:	6f 93       	push	r22
     640:	7f 93       	push	r23
     642:	8f 93       	push	r24
     644:	9f 93       	push	r25
     646:	af 93       	push	r26
     648:	bf 93       	push	r27
     64a:	cf 93       	push	r28
     64c:	df 93       	push	r29
     64e:	ef 93       	push	r30
     650:	ff 93       	push	r31
     652:	a0 91 6d 05 	lds	r26, 0x056D	; 0x80056d <pxCurrentTCB>
     656:	b0 91 6e 05 	lds	r27, 0x056E	; 0x80056e <pxCurrentTCB+0x1>
     65a:	0d b6       	in	r0, 0x3d	; 61
     65c:	0d 92       	st	X+, r0
     65e:	0e b6       	in	r0, 0x3e	; 62
     660:	0d 92       	st	X+, r0
     662:	0e 94 14 07 	call	0xe28	; 0xe28 <xTaskIncrementTick>
     666:	81 11       	cpse	r24, r1
     668:	0e 94 88 08 	call	0x1110	; 0x1110 <vTaskSwitchContext>
     66c:	a0 91 6d 05 	lds	r26, 0x056D	; 0x80056d <pxCurrentTCB>
     670:	b0 91 6e 05 	lds	r27, 0x056E	; 0x80056e <pxCurrentTCB+0x1>
     674:	cd 91       	ld	r28, X+
     676:	cd bf       	out	0x3d, r28	; 61
     678:	dd 91       	ld	r29, X+
     67a:	de bf       	out	0x3e, r29	; 62
     67c:	ff 91       	pop	r31
     67e:	ef 91       	pop	r30
     680:	df 91       	pop	r29
     682:	cf 91       	pop	r28
     684:	bf 91       	pop	r27
     686:	af 91       	pop	r26
     688:	9f 91       	pop	r25
     68a:	8f 91       	pop	r24
     68c:	7f 91       	pop	r23
     68e:	6f 91       	pop	r22
     690:	5f 91       	pop	r21
     692:	4f 91       	pop	r20
     694:	3f 91       	pop	r19
     696:	2f 91       	pop	r18
     698:	1f 91       	pop	r17
     69a:	0f 91       	pop	r16
     69c:	ff 90       	pop	r15
     69e:	ef 90       	pop	r14
     6a0:	df 90       	pop	r13
     6a2:	cf 90       	pop	r12
     6a4:	bf 90       	pop	r11
     6a6:	af 90       	pop	r10
     6a8:	9f 90       	pop	r9
     6aa:	8f 90       	pop	r8
     6ac:	7f 90       	pop	r7
     6ae:	6f 90       	pop	r6
     6b0:	5f 90       	pop	r5
     6b2:	4f 90       	pop	r4
     6b4:	3f 90       	pop	r3
     6b6:	2f 90       	pop	r2
     6b8:	1f 90       	pop	r1
     6ba:	0f 90       	pop	r0
     6bc:	0f be       	out	0x3f, r0	; 63
     6be:	0f 90       	pop	r0
     6c0:	08 95       	ret

000006c2 <__vector_7>:
     6c2:	0e 94 05 03 	call	0x60a	; 0x60a <vPortYieldFromTick>
     6c6:	18 95       	reti

000006c8 <prvCopyDataToQueue>:
     6c8:	1f 93       	push	r17
     6ca:	cf 93       	push	r28
     6cc:	df 93       	push	r29
     6ce:	ec 01       	movw	r28, r24
     6d0:	14 2f       	mov	r17, r20
     6d2:	4c 8d       	ldd	r20, Y+28	; 0x1c
     6d4:	41 11       	cpse	r20, r1
     6d6:	0c c0       	rjmp	.+24     	; 0x6f0 <prvCopyDataToQueue+0x28>
     6d8:	88 81       	ld	r24, Y
     6da:	99 81       	ldd	r25, Y+1	; 0x01
     6dc:	89 2b       	or	r24, r25
     6de:	09 f0       	breq	.+2      	; 0x6e2 <prvCopyDataToQueue+0x1a>
     6e0:	41 c0       	rjmp	.+130    	; 0x764 <prvCopyDataToQueue+0x9c>
     6e2:	8a 81       	ldd	r24, Y+2	; 0x02
     6e4:	9b 81       	ldd	r25, Y+3	; 0x03
     6e6:	0e 94 c4 09 	call	0x1388	; 0x1388 <xTaskPriorityDisinherit>
     6ea:	1b 82       	std	Y+3, r1	; 0x03
     6ec:	1a 82       	std	Y+2, r1	; 0x02
     6ee:	3b c0       	rjmp	.+118    	; 0x766 <prvCopyDataToQueue+0x9e>
     6f0:	50 e0       	ldi	r21, 0x00	; 0
     6f2:	11 11       	cpse	r17, r1
     6f4:	15 c0       	rjmp	.+42     	; 0x720 <prvCopyDataToQueue+0x58>
     6f6:	8c 81       	ldd	r24, Y+4	; 0x04
     6f8:	9d 81       	ldd	r25, Y+5	; 0x05
     6fa:	0e 94 c6 0a 	call	0x158c	; 0x158c <memcpy>
     6fe:	2c 8d       	ldd	r18, Y+28	; 0x1c
     700:	8c 81       	ldd	r24, Y+4	; 0x04
     702:	9d 81       	ldd	r25, Y+5	; 0x05
     704:	82 0f       	add	r24, r18
     706:	91 1d       	adc	r25, r1
     708:	9d 83       	std	Y+5, r25	; 0x05
     70a:	8c 83       	std	Y+4, r24	; 0x04
     70c:	2a 81       	ldd	r18, Y+2	; 0x02
     70e:	3b 81       	ldd	r19, Y+3	; 0x03
     710:	82 17       	cp	r24, r18
     712:	93 07       	cpc	r25, r19
     714:	38 f1       	brcs	.+78     	; 0x764 <prvCopyDataToQueue+0x9c>
     716:	88 81       	ld	r24, Y
     718:	99 81       	ldd	r25, Y+1	; 0x01
     71a:	9d 83       	std	Y+5, r25	; 0x05
     71c:	8c 83       	std	Y+4, r24	; 0x04
     71e:	22 c0       	rjmp	.+68     	; 0x764 <prvCopyDataToQueue+0x9c>
     720:	8e 81       	ldd	r24, Y+6	; 0x06
     722:	9f 81       	ldd	r25, Y+7	; 0x07
     724:	0e 94 c6 0a 	call	0x158c	; 0x158c <memcpy>
     728:	8c 8d       	ldd	r24, Y+28	; 0x1c
     72a:	90 e0       	ldi	r25, 0x00	; 0
     72c:	91 95       	neg	r25
     72e:	81 95       	neg	r24
     730:	91 09       	sbc	r25, r1
     732:	2e 81       	ldd	r18, Y+6	; 0x06
     734:	3f 81       	ldd	r19, Y+7	; 0x07
     736:	28 0f       	add	r18, r24
     738:	39 1f       	adc	r19, r25
     73a:	3f 83       	std	Y+7, r19	; 0x07
     73c:	2e 83       	std	Y+6, r18	; 0x06
     73e:	48 81       	ld	r20, Y
     740:	59 81       	ldd	r21, Y+1	; 0x01
     742:	24 17       	cp	r18, r20
     744:	35 07       	cpc	r19, r21
     746:	30 f4       	brcc	.+12     	; 0x754 <prvCopyDataToQueue+0x8c>
     748:	2a 81       	ldd	r18, Y+2	; 0x02
     74a:	3b 81       	ldd	r19, Y+3	; 0x03
     74c:	82 0f       	add	r24, r18
     74e:	93 1f       	adc	r25, r19
     750:	9f 83       	std	Y+7, r25	; 0x07
     752:	8e 83       	std	Y+6, r24	; 0x06
     754:	12 30       	cpi	r17, 0x02	; 2
     756:	31 f4       	brne	.+12     	; 0x764 <prvCopyDataToQueue+0x9c>
     758:	8a 8d       	ldd	r24, Y+26	; 0x1a
     75a:	88 23       	and	r24, r24
     75c:	19 f0       	breq	.+6      	; 0x764 <prvCopyDataToQueue+0x9c>
     75e:	8a 8d       	ldd	r24, Y+26	; 0x1a
     760:	81 50       	subi	r24, 0x01	; 1
     762:	8a 8f       	std	Y+26, r24	; 0x1a
     764:	80 e0       	ldi	r24, 0x00	; 0
     766:	9a 8d       	ldd	r25, Y+26	; 0x1a
     768:	9f 5f       	subi	r25, 0xFF	; 255
     76a:	9a 8f       	std	Y+26, r25	; 0x1a
     76c:	df 91       	pop	r29
     76e:	cf 91       	pop	r28
     770:	1f 91       	pop	r17
     772:	08 95       	ret

00000774 <prvCopyDataFromQueue>:
     774:	fc 01       	movw	r30, r24
     776:	cb 01       	movw	r24, r22
     778:	44 8d       	ldd	r20, Z+28	; 0x1c
     77a:	44 23       	and	r20, r20
     77c:	a1 f0       	breq	.+40     	; 0x7a6 <prvCopyDataFromQueue+0x32>
     77e:	50 e0       	ldi	r21, 0x00	; 0
     780:	26 81       	ldd	r18, Z+6	; 0x06
     782:	37 81       	ldd	r19, Z+7	; 0x07
     784:	24 0f       	add	r18, r20
     786:	35 1f       	adc	r19, r21
     788:	37 83       	std	Z+7, r19	; 0x07
     78a:	26 83       	std	Z+6, r18	; 0x06
     78c:	62 81       	ldd	r22, Z+2	; 0x02
     78e:	73 81       	ldd	r23, Z+3	; 0x03
     790:	26 17       	cp	r18, r22
     792:	37 07       	cpc	r19, r23
     794:	20 f0       	brcs	.+8      	; 0x79e <prvCopyDataFromQueue+0x2a>
     796:	20 81       	ld	r18, Z
     798:	31 81       	ldd	r19, Z+1	; 0x01
     79a:	37 83       	std	Z+7, r19	; 0x07
     79c:	26 83       	std	Z+6, r18	; 0x06
     79e:	66 81       	ldd	r22, Z+6	; 0x06
     7a0:	77 81       	ldd	r23, Z+7	; 0x07
     7a2:	0c 94 c6 0a 	jmp	0x158c	; 0x158c <memcpy>
     7a6:	08 95       	ret

000007a8 <prvUnlockQueue>:
     7a8:	0f 93       	push	r16
     7aa:	1f 93       	push	r17
     7ac:	cf 93       	push	r28
     7ae:	df 93       	push	r29
     7b0:	ec 01       	movw	r28, r24
     7b2:	0f b6       	in	r0, 0x3f	; 63
     7b4:	f8 94       	cli
     7b6:	0f 92       	push	r0
     7b8:	8c 01       	movw	r16, r24
     7ba:	0f 5e       	subi	r16, 0xEF	; 239
     7bc:	1f 4f       	sbci	r17, 0xFF	; 255
     7be:	8e 8d       	ldd	r24, Y+30	; 0x1e
     7c0:	18 16       	cp	r1, r24
     7c2:	6c f4       	brge	.+26     	; 0x7de <prvUnlockQueue+0x36>
     7c4:	89 89       	ldd	r24, Y+17	; 0x11
     7c6:	88 23       	and	r24, r24
     7c8:	51 f0       	breq	.+20     	; 0x7de <prvUnlockQueue+0x36>
     7ca:	c8 01       	movw	r24, r16
     7cc:	0e 94 f0 08 	call	0x11e0	; 0x11e0 <xTaskRemoveFromEventList>
     7d0:	81 11       	cpse	r24, r1
     7d2:	0e 94 67 09 	call	0x12ce	; 0x12ce <vTaskMissedYield>
     7d6:	8e 8d       	ldd	r24, Y+30	; 0x1e
     7d8:	81 50       	subi	r24, 0x01	; 1
     7da:	8e 8f       	std	Y+30, r24	; 0x1e
     7dc:	f0 cf       	rjmp	.-32     	; 0x7be <prvUnlockQueue+0x16>
     7de:	8f ef       	ldi	r24, 0xFF	; 255
     7e0:	8e 8f       	std	Y+30, r24	; 0x1e
     7e2:	0f 90       	pop	r0
     7e4:	0f be       	out	0x3f, r0	; 63
     7e6:	0f b6       	in	r0, 0x3f	; 63
     7e8:	f8 94       	cli
     7ea:	0f 92       	push	r0
     7ec:	8e 01       	movw	r16, r28
     7ee:	08 5f       	subi	r16, 0xF8	; 248
     7f0:	1f 4f       	sbci	r17, 0xFF	; 255
     7f2:	8d 8d       	ldd	r24, Y+29	; 0x1d
     7f4:	18 16       	cp	r1, r24
     7f6:	6c f4       	brge	.+26     	; 0x812 <__DATA_REGION_LENGTH__+0x12>
     7f8:	88 85       	ldd	r24, Y+8	; 0x08
     7fa:	88 23       	and	r24, r24
     7fc:	51 f0       	breq	.+20     	; 0x812 <__DATA_REGION_LENGTH__+0x12>
     7fe:	c8 01       	movw	r24, r16
     800:	0e 94 f0 08 	call	0x11e0	; 0x11e0 <xTaskRemoveFromEventList>
     804:	81 11       	cpse	r24, r1
     806:	0e 94 67 09 	call	0x12ce	; 0x12ce <vTaskMissedYield>
     80a:	8d 8d       	ldd	r24, Y+29	; 0x1d
     80c:	81 50       	subi	r24, 0x01	; 1
     80e:	8d 8f       	std	Y+29, r24	; 0x1d
     810:	f0 cf       	rjmp	.-32     	; 0x7f2 <prvUnlockQueue+0x4a>
     812:	8f ef       	ldi	r24, 0xFF	; 255
     814:	8d 8f       	std	Y+29, r24	; 0x1d
     816:	0f 90       	pop	r0
     818:	0f be       	out	0x3f, r0	; 63
     81a:	df 91       	pop	r29
     81c:	cf 91       	pop	r28
     81e:	1f 91       	pop	r17
     820:	0f 91       	pop	r16
     822:	08 95       	ret

00000824 <xQueueGenericSend>:
     824:	af 92       	push	r10
     826:	bf 92       	push	r11
     828:	cf 92       	push	r12
     82a:	df 92       	push	r13
     82c:	ff 92       	push	r15
     82e:	0f 93       	push	r16
     830:	1f 93       	push	r17
     832:	cf 93       	push	r28
     834:	df 93       	push	r29
     836:	00 d0       	rcall	.+0      	; 0x838 <xQueueGenericSend+0x14>
     838:	00 d0       	rcall	.+0      	; 0x83a <xQueueGenericSend+0x16>
     83a:	1f 92       	push	r1
     83c:	cd b7       	in	r28, 0x3d	; 61
     83e:	de b7       	in	r29, 0x3e	; 62
     840:	8c 01       	movw	r16, r24
     842:	6b 01       	movw	r12, r22
     844:	5d 83       	std	Y+5, r21	; 0x05
     846:	4c 83       	std	Y+4, r20	; 0x04
     848:	f2 2e       	mov	r15, r18
     84a:	80 e0       	ldi	r24, 0x00	; 0
     84c:	58 01       	movw	r10, r16
     84e:	98 e0       	ldi	r25, 0x08	; 8
     850:	a9 0e       	add	r10, r25
     852:	b1 1c       	adc	r11, r1
     854:	0f b6       	in	r0, 0x3f	; 63
     856:	f8 94       	cli
     858:	0f 92       	push	r0
     85a:	f8 01       	movw	r30, r16
     85c:	22 8d       	ldd	r18, Z+26	; 0x1a
     85e:	93 8d       	ldd	r25, Z+27	; 0x1b
     860:	29 17       	cp	r18, r25
     862:	18 f0       	brcs	.+6      	; 0x86a <__stack+0xb>
     864:	f2 e0       	ldi	r31, 0x02	; 2
     866:	ff 12       	cpse	r15, r31
     868:	18 c0       	rjmp	.+48     	; 0x89a <__stack+0x3b>
     86a:	4f 2d       	mov	r20, r15
     86c:	b6 01       	movw	r22, r12
     86e:	c8 01       	movw	r24, r16
     870:	0e 94 64 03 	call	0x6c8	; 0x6c8 <prvCopyDataToQueue>
     874:	f8 01       	movw	r30, r16
     876:	91 89       	ldd	r25, Z+17	; 0x11
     878:	99 23       	and	r25, r25
     87a:	49 f0       	breq	.+18     	; 0x88e <__stack+0x2f>
     87c:	c8 01       	movw	r24, r16
     87e:	41 96       	adiw	r24, 0x11	; 17
     880:	0e 94 f0 08 	call	0x11e0	; 0x11e0 <xTaskRemoveFromEventList>
     884:	81 30       	cpi	r24, 0x01	; 1
     886:	29 f4       	brne	.+10     	; 0x892 <__stack+0x33>
     888:	0e 94 ac 02 	call	0x558	; 0x558 <vPortYield>
     88c:	02 c0       	rjmp	.+4      	; 0x892 <__stack+0x33>
     88e:	81 11       	cpse	r24, r1
     890:	fb cf       	rjmp	.-10     	; 0x888 <__stack+0x29>
     892:	0f 90       	pop	r0
     894:	0f be       	out	0x3f, r0	; 63
     896:	81 e0       	ldi	r24, 0x01	; 1
     898:	50 c0       	rjmp	.+160    	; 0x93a <__stack+0xdb>
     89a:	2c 81       	ldd	r18, Y+4	; 0x04
     89c:	3d 81       	ldd	r19, Y+5	; 0x05
     89e:	23 2b       	or	r18, r19
     8a0:	19 f4       	brne	.+6      	; 0x8a8 <__stack+0x49>
     8a2:	0f 90       	pop	r0
     8a4:	0f be       	out	0x3f, r0	; 63
     8a6:	48 c0       	rjmp	.+144    	; 0x938 <__stack+0xd9>
     8a8:	81 11       	cpse	r24, r1
     8aa:	04 c0       	rjmp	.+8      	; 0x8b4 <__stack+0x55>
     8ac:	ce 01       	movw	r24, r28
     8ae:	01 96       	adiw	r24, 0x01	; 1
     8b0:	0e 94 30 09 	call	0x1260	; 0x1260 <vTaskSetTimeOutState>
     8b4:	0f 90       	pop	r0
     8b6:	0f be       	out	0x3f, r0	; 63
     8b8:	0e 94 0e 07 	call	0xe1c	; 0xe1c <vTaskSuspendAll>
     8bc:	0f b6       	in	r0, 0x3f	; 63
     8be:	f8 94       	cli
     8c0:	0f 92       	push	r0
     8c2:	f8 01       	movw	r30, r16
     8c4:	85 8d       	ldd	r24, Z+29	; 0x1d
     8c6:	8f 3f       	cpi	r24, 0xFF	; 255
     8c8:	09 f4       	brne	.+2      	; 0x8cc <__stack+0x6d>
     8ca:	15 8e       	std	Z+29, r1	; 0x1d
     8cc:	f8 01       	movw	r30, r16
     8ce:	86 8d       	ldd	r24, Z+30	; 0x1e
     8d0:	8f 3f       	cpi	r24, 0xFF	; 255
     8d2:	09 f4       	brne	.+2      	; 0x8d6 <__stack+0x77>
     8d4:	16 8e       	std	Z+30, r1	; 0x1e
     8d6:	0f 90       	pop	r0
     8d8:	0f be       	out	0x3f, r0	; 63
     8da:	be 01       	movw	r22, r28
     8dc:	6c 5f       	subi	r22, 0xFC	; 252
     8de:	7f 4f       	sbci	r23, 0xFF	; 255
     8e0:	ce 01       	movw	r24, r28
     8e2:	01 96       	adiw	r24, 0x01	; 1
     8e4:	0e 94 3b 09 	call	0x1276	; 0x1276 <xTaskCheckForTimeOut>
     8e8:	81 11       	cpse	r24, r1
     8ea:	21 c0       	rjmp	.+66     	; 0x92e <__stack+0xcf>
     8ec:	0f b6       	in	r0, 0x3f	; 63
     8ee:	f8 94       	cli
     8f0:	0f 92       	push	r0
     8f2:	f8 01       	movw	r30, r16
     8f4:	92 8d       	ldd	r25, Z+26	; 0x1a
     8f6:	0f 90       	pop	r0
     8f8:	0f be       	out	0x3f, r0	; 63
     8fa:	83 8d       	ldd	r24, Z+27	; 0x1b
     8fc:	98 13       	cpse	r25, r24
     8fe:	11 c0       	rjmp	.+34     	; 0x922 <__stack+0xc3>
     900:	6c 81       	ldd	r22, Y+4	; 0x04
     902:	7d 81       	ldd	r23, Y+5	; 0x05
     904:	c5 01       	movw	r24, r10
     906:	0e 94 d4 08 	call	0x11a8	; 0x11a8 <vTaskPlaceOnEventList>
     90a:	c8 01       	movw	r24, r16
     90c:	0e 94 d4 03 	call	0x7a8	; 0x7a8 <prvUnlockQueue>
     910:	0e 94 c3 07 	call	0xf86	; 0xf86 <xTaskResumeAll>
     914:	88 23       	and	r24, r24
     916:	11 f0       	breq	.+4      	; 0x91c <__stack+0xbd>
     918:	81 e0       	ldi	r24, 0x01	; 1
     91a:	9c cf       	rjmp	.-200    	; 0x854 <xQueueGenericSend+0x30>
     91c:	0e 94 ac 02 	call	0x558	; 0x558 <vPortYield>
     920:	fb cf       	rjmp	.-10     	; 0x918 <__stack+0xb9>
     922:	c8 01       	movw	r24, r16
     924:	0e 94 d4 03 	call	0x7a8	; 0x7a8 <prvUnlockQueue>
     928:	0e 94 c3 07 	call	0xf86	; 0xf86 <xTaskResumeAll>
     92c:	f5 cf       	rjmp	.-22     	; 0x918 <__stack+0xb9>
     92e:	c8 01       	movw	r24, r16
     930:	0e 94 d4 03 	call	0x7a8	; 0x7a8 <prvUnlockQueue>
     934:	0e 94 c3 07 	call	0xf86	; 0xf86 <xTaskResumeAll>
     938:	80 e0       	ldi	r24, 0x00	; 0
     93a:	0f 90       	pop	r0
     93c:	0f 90       	pop	r0
     93e:	0f 90       	pop	r0
     940:	0f 90       	pop	r0
     942:	0f 90       	pop	r0
     944:	df 91       	pop	r29
     946:	cf 91       	pop	r28
     948:	1f 91       	pop	r17
     94a:	0f 91       	pop	r16
     94c:	ff 90       	pop	r15
     94e:	df 90       	pop	r13
     950:	cf 90       	pop	r12
     952:	bf 90       	pop	r11
     954:	af 90       	pop	r10
     956:	08 95       	ret

00000958 <xQueueCreateMutex>:
     958:	cf 93       	push	r28
     95a:	df 93       	push	r29
     95c:	8f e1       	ldi	r24, 0x1F	; 31
     95e:	90 e0       	ldi	r25, 0x00	; 0
     960:	0e 94 4a 01 	call	0x294	; 0x294 <pvPortMalloc>
     964:	ec 01       	movw	r28, r24
     966:	89 2b       	or	r24, r25
     968:	f9 f0       	breq	.+62     	; 0x9a8 <xQueueCreateMutex+0x50>
     96a:	1b 82       	std	Y+3, r1	; 0x03
     96c:	1a 82       	std	Y+2, r1	; 0x02
     96e:	19 82       	std	Y+1, r1	; 0x01
     970:	18 82       	st	Y, r1
     972:	1d 82       	std	Y+5, r1	; 0x05
     974:	1c 82       	std	Y+4, r1	; 0x04
     976:	1f 82       	std	Y+7, r1	; 0x07
     978:	1e 82       	std	Y+6, r1	; 0x06
     97a:	1a 8e       	std	Y+26, r1	; 0x1a
     97c:	81 e0       	ldi	r24, 0x01	; 1
     97e:	8b 8f       	std	Y+27, r24	; 0x1b
     980:	1c 8e       	std	Y+28, r1	; 0x1c
     982:	8f ef       	ldi	r24, 0xFF	; 255
     984:	8d 8f       	std	Y+29, r24	; 0x1d
     986:	8e 8f       	std	Y+30, r24	; 0x1e
     988:	ce 01       	movw	r24, r28
     98a:	08 96       	adiw	r24, 0x08	; 8
     98c:	0e 94 7d 01 	call	0x2fa	; 0x2fa <vListInitialise>
     990:	ce 01       	movw	r24, r28
     992:	41 96       	adiw	r24, 0x11	; 17
     994:	0e 94 7d 01 	call	0x2fa	; 0x2fa <vListInitialise>
     998:	20 e0       	ldi	r18, 0x00	; 0
     99a:	40 e0       	ldi	r20, 0x00	; 0
     99c:	50 e0       	ldi	r21, 0x00	; 0
     99e:	60 e0       	ldi	r22, 0x00	; 0
     9a0:	70 e0       	ldi	r23, 0x00	; 0
     9a2:	ce 01       	movw	r24, r28
     9a4:	0e 94 12 04 	call	0x824	; 0x824 <xQueueGenericSend>
     9a8:	ce 01       	movw	r24, r28
     9aa:	df 91       	pop	r29
     9ac:	cf 91       	pop	r28
     9ae:	08 95       	ret

000009b0 <xQueueGenericReceive>:
     9b0:	af 92       	push	r10
     9b2:	bf 92       	push	r11
     9b4:	df 92       	push	r13
     9b6:	ef 92       	push	r14
     9b8:	ff 92       	push	r15
     9ba:	0f 93       	push	r16
     9bc:	1f 93       	push	r17
     9be:	cf 93       	push	r28
     9c0:	df 93       	push	r29
     9c2:	00 d0       	rcall	.+0      	; 0x9c4 <xQueueGenericReceive+0x14>
     9c4:	00 d0       	rcall	.+0      	; 0x9c6 <xQueueGenericReceive+0x16>
     9c6:	1f 92       	push	r1
     9c8:	cd b7       	in	r28, 0x3d	; 61
     9ca:	de b7       	in	r29, 0x3e	; 62
     9cc:	8c 01       	movw	r16, r24
     9ce:	7b 01       	movw	r14, r22
     9d0:	5d 83       	std	Y+5, r21	; 0x05
     9d2:	4c 83       	std	Y+4, r20	; 0x04
     9d4:	d2 2e       	mov	r13, r18
     9d6:	80 e0       	ldi	r24, 0x00	; 0
     9d8:	58 01       	movw	r10, r16
     9da:	91 e1       	ldi	r25, 0x11	; 17
     9dc:	a9 0e       	add	r10, r25
     9de:	b1 1c       	adc	r11, r1
     9e0:	0f b6       	in	r0, 0x3f	; 63
     9e2:	f8 94       	cli
     9e4:	0f 92       	push	r0
     9e6:	f8 01       	movw	r30, r16
     9e8:	92 8d       	ldd	r25, Z+26	; 0x1a
     9ea:	99 23       	and	r25, r25
     9ec:	89 f1       	breq	.+98     	; 0xa50 <xQueueGenericReceive+0xa0>
     9ee:	a6 80       	ldd	r10, Z+6	; 0x06
     9f0:	b7 80       	ldd	r11, Z+7	; 0x07
     9f2:	b7 01       	movw	r22, r14
     9f4:	c8 01       	movw	r24, r16
     9f6:	0e 94 ba 03 	call	0x774	; 0x774 <prvCopyDataFromQueue>
     9fa:	f8 01       	movw	r30, r16
     9fc:	d1 10       	cpse	r13, r1
     9fe:	19 c0       	rjmp	.+50     	; 0xa32 <xQueueGenericReceive+0x82>
     a00:	82 8d       	ldd	r24, Z+26	; 0x1a
     a02:	81 50       	subi	r24, 0x01	; 1
     a04:	82 8f       	std	Z+26, r24	; 0x1a
     a06:	80 81       	ld	r24, Z
     a08:	91 81       	ldd	r25, Z+1	; 0x01
     a0a:	89 2b       	or	r24, r25
     a0c:	29 f4       	brne	.+10     	; 0xa18 <xQueueGenericReceive+0x68>
     a0e:	0e 94 fe 09 	call	0x13fc	; 0x13fc <pvTaskIncrementMutexHeldCount>
     a12:	f8 01       	movw	r30, r16
     a14:	93 83       	std	Z+3, r25	; 0x03
     a16:	82 83       	std	Z+2, r24	; 0x02
     a18:	f8 01       	movw	r30, r16
     a1a:	80 85       	ldd	r24, Z+8	; 0x08
     a1c:	88 23       	and	r24, r24
     a1e:	a1 f0       	breq	.+40     	; 0xa48 <xQueueGenericReceive+0x98>
     a20:	c8 01       	movw	r24, r16
     a22:	08 96       	adiw	r24, 0x08	; 8
     a24:	0e 94 f0 08 	call	0x11e0	; 0x11e0 <xTaskRemoveFromEventList>
     a28:	81 30       	cpi	r24, 0x01	; 1
     a2a:	71 f4       	brne	.+28     	; 0xa48 <xQueueGenericReceive+0x98>
     a2c:	0e 94 ac 02 	call	0x558	; 0x558 <vPortYield>
     a30:	0b c0       	rjmp	.+22     	; 0xa48 <xQueueGenericReceive+0x98>
     a32:	b7 82       	std	Z+7, r11	; 0x07
     a34:	a6 82       	std	Z+6, r10	; 0x06
     a36:	81 89       	ldd	r24, Z+17	; 0x11
     a38:	88 23       	and	r24, r24
     a3a:	31 f0       	breq	.+12     	; 0xa48 <xQueueGenericReceive+0x98>
     a3c:	c8 01       	movw	r24, r16
     a3e:	41 96       	adiw	r24, 0x11	; 17
     a40:	0e 94 f0 08 	call	0x11e0	; 0x11e0 <xTaskRemoveFromEventList>
     a44:	81 11       	cpse	r24, r1
     a46:	f2 cf       	rjmp	.-28     	; 0xa2c <xQueueGenericReceive+0x7c>
     a48:	0f 90       	pop	r0
     a4a:	0f be       	out	0x3f, r0	; 63
     a4c:	81 e0       	ldi	r24, 0x01	; 1
     a4e:	5c c0       	rjmp	.+184    	; 0xb08 <xQueueGenericReceive+0x158>
     a50:	2c 81       	ldd	r18, Y+4	; 0x04
     a52:	3d 81       	ldd	r19, Y+5	; 0x05
     a54:	23 2b       	or	r18, r19
     a56:	19 f4       	brne	.+6      	; 0xa5e <xQueueGenericReceive+0xae>
     a58:	0f 90       	pop	r0
     a5a:	0f be       	out	0x3f, r0	; 63
     a5c:	54 c0       	rjmp	.+168    	; 0xb06 <xQueueGenericReceive+0x156>
     a5e:	81 11       	cpse	r24, r1
     a60:	04 c0       	rjmp	.+8      	; 0xa6a <xQueueGenericReceive+0xba>
     a62:	ce 01       	movw	r24, r28
     a64:	01 96       	adiw	r24, 0x01	; 1
     a66:	0e 94 30 09 	call	0x1260	; 0x1260 <vTaskSetTimeOutState>
     a6a:	0f 90       	pop	r0
     a6c:	0f be       	out	0x3f, r0	; 63
     a6e:	0e 94 0e 07 	call	0xe1c	; 0xe1c <vTaskSuspendAll>
     a72:	0f b6       	in	r0, 0x3f	; 63
     a74:	f8 94       	cli
     a76:	0f 92       	push	r0
     a78:	f8 01       	movw	r30, r16
     a7a:	85 8d       	ldd	r24, Z+29	; 0x1d
     a7c:	8f 3f       	cpi	r24, 0xFF	; 255
     a7e:	09 f4       	brne	.+2      	; 0xa82 <xQueueGenericReceive+0xd2>
     a80:	15 8e       	std	Z+29, r1	; 0x1d
     a82:	f8 01       	movw	r30, r16
     a84:	86 8d       	ldd	r24, Z+30	; 0x1e
     a86:	8f 3f       	cpi	r24, 0xFF	; 255
     a88:	09 f4       	brne	.+2      	; 0xa8c <xQueueGenericReceive+0xdc>
     a8a:	16 8e       	std	Z+30, r1	; 0x1e
     a8c:	0f 90       	pop	r0
     a8e:	0f be       	out	0x3f, r0	; 63
     a90:	be 01       	movw	r22, r28
     a92:	6c 5f       	subi	r22, 0xFC	; 252
     a94:	7f 4f       	sbci	r23, 0xFF	; 255
     a96:	ce 01       	movw	r24, r28
     a98:	01 96       	adiw	r24, 0x01	; 1
     a9a:	0e 94 3b 09 	call	0x1276	; 0x1276 <xTaskCheckForTimeOut>
     a9e:	81 11       	cpse	r24, r1
     aa0:	2d c0       	rjmp	.+90     	; 0xafc <xQueueGenericReceive+0x14c>
     aa2:	0f b6       	in	r0, 0x3f	; 63
     aa4:	f8 94       	cli
     aa6:	0f 92       	push	r0
     aa8:	f8 01       	movw	r30, r16
     aaa:	82 8d       	ldd	r24, Z+26	; 0x1a
     aac:	0f 90       	pop	r0
     aae:	0f be       	out	0x3f, r0	; 63
     ab0:	81 11       	cpse	r24, r1
     ab2:	1e c0       	rjmp	.+60     	; 0xaf0 <xQueueGenericReceive+0x140>
     ab4:	80 81       	ld	r24, Z
     ab6:	91 81       	ldd	r25, Z+1	; 0x01
     ab8:	89 2b       	or	r24, r25
     aba:	49 f4       	brne	.+18     	; 0xace <xQueueGenericReceive+0x11e>
     abc:	0f b6       	in	r0, 0x3f	; 63
     abe:	f8 94       	cli
     ac0:	0f 92       	push	r0
     ac2:	82 81       	ldd	r24, Z+2	; 0x02
     ac4:	93 81       	ldd	r25, Z+3	; 0x03
     ac6:	0e 94 6b 09 	call	0x12d6	; 0x12d6 <vTaskPriorityInherit>
     aca:	0f 90       	pop	r0
     acc:	0f be       	out	0x3f, r0	; 63
     ace:	6c 81       	ldd	r22, Y+4	; 0x04
     ad0:	7d 81       	ldd	r23, Y+5	; 0x05
     ad2:	c5 01       	movw	r24, r10
     ad4:	0e 94 d4 08 	call	0x11a8	; 0x11a8 <vTaskPlaceOnEventList>
     ad8:	c8 01       	movw	r24, r16
     ada:	0e 94 d4 03 	call	0x7a8	; 0x7a8 <prvUnlockQueue>
     ade:	0e 94 c3 07 	call	0xf86	; 0xf86 <xTaskResumeAll>
     ae2:	88 23       	and	r24, r24
     ae4:	11 f0       	breq	.+4      	; 0xaea <xQueueGenericReceive+0x13a>
     ae6:	81 e0       	ldi	r24, 0x01	; 1
     ae8:	7b cf       	rjmp	.-266    	; 0x9e0 <xQueueGenericReceive+0x30>
     aea:	0e 94 ac 02 	call	0x558	; 0x558 <vPortYield>
     aee:	fb cf       	rjmp	.-10     	; 0xae6 <xQueueGenericReceive+0x136>
     af0:	c8 01       	movw	r24, r16
     af2:	0e 94 d4 03 	call	0x7a8	; 0x7a8 <prvUnlockQueue>
     af6:	0e 94 c3 07 	call	0xf86	; 0xf86 <xTaskResumeAll>
     afa:	f5 cf       	rjmp	.-22     	; 0xae6 <xQueueGenericReceive+0x136>
     afc:	c8 01       	movw	r24, r16
     afe:	0e 94 d4 03 	call	0x7a8	; 0x7a8 <prvUnlockQueue>
     b02:	0e 94 c3 07 	call	0xf86	; 0xf86 <xTaskResumeAll>
     b06:	80 e0       	ldi	r24, 0x00	; 0
     b08:	0f 90       	pop	r0
     b0a:	0f 90       	pop	r0
     b0c:	0f 90       	pop	r0
     b0e:	0f 90       	pop	r0
     b10:	0f 90       	pop	r0
     b12:	df 91       	pop	r29
     b14:	cf 91       	pop	r28
     b16:	1f 91       	pop	r17
     b18:	0f 91       	pop	r16
     b1a:	ff 90       	pop	r15
     b1c:	ef 90       	pop	r14
     b1e:	df 90       	pop	r13
     b20:	bf 90       	pop	r11
     b22:	af 90       	pop	r10
     b24:	08 95       	ret

00000b26 <prvResetNextTaskUnblockTime>:
     b26:	e0 91 35 05 	lds	r30, 0x0535	; 0x800535 <pxDelayedTaskList>
     b2a:	f0 91 36 05 	lds	r31, 0x0536	; 0x800536 <pxDelayedTaskList+0x1>
     b2e:	80 81       	ld	r24, Z
     b30:	81 11       	cpse	r24, r1
     b32:	03 c0       	rjmp	.+6      	; 0xb3a <prvResetNextTaskUnblockTime+0x14>
     b34:	8f ef       	ldi	r24, 0xFF	; 255
     b36:	9f ef       	ldi	r25, 0xFF	; 255
     b38:	0c c0       	rjmp	.+24     	; 0xb52 <prvResetNextTaskUnblockTime+0x2c>
     b3a:	e0 91 35 05 	lds	r30, 0x0535	; 0x800535 <pxDelayedTaskList>
     b3e:	f0 91 36 05 	lds	r31, 0x0536	; 0x800536 <pxDelayedTaskList+0x1>
     b42:	05 80       	ldd	r0, Z+5	; 0x05
     b44:	f6 81       	ldd	r31, Z+6	; 0x06
     b46:	e0 2d       	mov	r30, r0
     b48:	06 80       	ldd	r0, Z+6	; 0x06
     b4a:	f7 81       	ldd	r31, Z+7	; 0x07
     b4c:	e0 2d       	mov	r30, r0
     b4e:	82 81       	ldd	r24, Z+2	; 0x02
     b50:	93 81       	ldd	r25, Z+3	; 0x03
     b52:	90 93 61 00 	sts	0x0061, r25	; 0x800061 <__DATA_REGION_ORIGIN__+0x1>
     b56:	80 93 60 00 	sts	0x0060, r24	; 0x800060 <__DATA_REGION_ORIGIN__>
     b5a:	08 95       	ret

00000b5c <prvAddCurrentTaskToDelayedList>:
     b5c:	cf 93       	push	r28
     b5e:	df 93       	push	r29
     b60:	e0 91 6d 05 	lds	r30, 0x056D	; 0x80056d <pxCurrentTCB>
     b64:	f0 91 6e 05 	lds	r31, 0x056E	; 0x80056e <pxCurrentTCB+0x1>
     b68:	93 83       	std	Z+3, r25	; 0x03
     b6a:	82 83       	std	Z+2, r24	; 0x02
     b6c:	20 91 1d 05 	lds	r18, 0x051D	; 0x80051d <xTickCount>
     b70:	30 91 1e 05 	lds	r19, 0x051E	; 0x80051e <xTickCount+0x1>
     b74:	82 17       	cp	r24, r18
     b76:	93 07       	cpc	r25, r19
     b78:	70 f4       	brcc	.+28     	; 0xb96 <prvAddCurrentTaskToDelayedList+0x3a>
     b7a:	60 91 6d 05 	lds	r22, 0x056D	; 0x80056d <pxCurrentTCB>
     b7e:	70 91 6e 05 	lds	r23, 0x056E	; 0x80056e <pxCurrentTCB+0x1>
     b82:	80 91 33 05 	lds	r24, 0x0533	; 0x800533 <pxOverflowDelayedTaskList>
     b86:	90 91 34 05 	lds	r25, 0x0534	; 0x800534 <pxOverflowDelayedTaskList+0x1>
     b8a:	6e 5f       	subi	r22, 0xFE	; 254
     b8c:	7f 4f       	sbci	r23, 0xFF	; 255
     b8e:	df 91       	pop	r29
     b90:	cf 91       	pop	r28
     b92:	0c 94 b0 01 	jmp	0x360	; 0x360 <vListInsert>
     b96:	ec 01       	movw	r28, r24
     b98:	60 91 6d 05 	lds	r22, 0x056D	; 0x80056d <pxCurrentTCB>
     b9c:	70 91 6e 05 	lds	r23, 0x056E	; 0x80056e <pxCurrentTCB+0x1>
     ba0:	80 91 35 05 	lds	r24, 0x0535	; 0x800535 <pxDelayedTaskList>
     ba4:	90 91 36 05 	lds	r25, 0x0536	; 0x800536 <pxDelayedTaskList+0x1>
     ba8:	6e 5f       	subi	r22, 0xFE	; 254
     baa:	7f 4f       	sbci	r23, 0xFF	; 255
     bac:	0e 94 b0 01 	call	0x360	; 0x360 <vListInsert>
     bb0:	80 91 60 00 	lds	r24, 0x0060	; 0x800060 <__DATA_REGION_ORIGIN__>
     bb4:	90 91 61 00 	lds	r25, 0x0061	; 0x800061 <__DATA_REGION_ORIGIN__+0x1>
     bb8:	c8 17       	cp	r28, r24
     bba:	d9 07       	cpc	r29, r25
     bbc:	20 f4       	brcc	.+8      	; 0xbc6 <prvAddCurrentTaskToDelayedList+0x6a>
     bbe:	d0 93 61 00 	sts	0x0061, r29	; 0x800061 <__DATA_REGION_ORIGIN__+0x1>
     bc2:	c0 93 60 00 	sts	0x0060, r28	; 0x800060 <__DATA_REGION_ORIGIN__>
     bc6:	df 91       	pop	r29
     bc8:	cf 91       	pop	r28
     bca:	08 95       	ret

00000bcc <xTaskGenericCreate>:
     bcc:	5f 92       	push	r5
     bce:	6f 92       	push	r6
     bd0:	7f 92       	push	r7
     bd2:	8f 92       	push	r8
     bd4:	9f 92       	push	r9
     bd6:	af 92       	push	r10
     bd8:	bf 92       	push	r11
     bda:	cf 92       	push	r12
     bdc:	df 92       	push	r13
     bde:	ef 92       	push	r14
     be0:	ff 92       	push	r15
     be2:	0f 93       	push	r16
     be4:	1f 93       	push	r17
     be6:	cf 93       	push	r28
     be8:	df 93       	push	r29
     bea:	4c 01       	movw	r8, r24
     bec:	16 2f       	mov	r17, r22
     bee:	57 2e       	mov	r5, r23
     bf0:	5a 01       	movw	r10, r20
     bf2:	39 01       	movw	r6, r18
     bf4:	8f e2       	ldi	r24, 0x2F	; 47
     bf6:	90 e0       	ldi	r25, 0x00	; 0
     bf8:	0e 94 4a 01 	call	0x294	; 0x294 <pvPortMalloc>
     bfc:	ec 01       	movw	r28, r24
     bfe:	89 2b       	or	r24, r25
     c00:	79 f0       	breq	.+30     	; 0xc20 <xTaskGenericCreate+0x54>
     c02:	c1 14       	cp	r12, r1
     c04:	d1 04       	cpc	r13, r1
     c06:	21 f4       	brne	.+8      	; 0xc10 <xTaskGenericCreate+0x44>
     c08:	c5 01       	movw	r24, r10
     c0a:	0e 94 4a 01 	call	0x294	; 0x294 <pvPortMalloc>
     c0e:	01 c0       	rjmp	.+2      	; 0xc12 <xTaskGenericCreate+0x46>
     c10:	c6 01       	movw	r24, r12
     c12:	98 8f       	std	Y+24, r25	; 0x18
     c14:	8f 8b       	std	Y+23, r24	; 0x17
     c16:	00 97       	sbiw	r24, 0x00	; 0
     c18:	29 f4       	brne	.+10     	; 0xc24 <xTaskGenericCreate+0x58>
     c1a:	ce 01       	movw	r24, r28
     c1c:	0e 94 7c 01 	call	0x2f8	; 0x2f8 <vPortFree>
     c20:	8f ef       	ldi	r24, 0xFF	; 255
     c22:	ba c0       	rjmp	.+372    	; 0xd98 <xTaskGenericCreate+0x1cc>
     c24:	65 01       	movw	r12, r10
     c26:	21 e0       	ldi	r18, 0x01	; 1
     c28:	c2 1a       	sub	r12, r18
     c2a:	d1 08       	sbc	r13, r1
     c2c:	c8 0e       	add	r12, r24
     c2e:	d9 1e       	adc	r13, r25
     c30:	be 01       	movw	r22, r28
     c32:	67 5e       	subi	r22, 0xE7	; 231
     c34:	7f 4f       	sbci	r23, 0xFF	; 255
     c36:	e1 2f       	mov	r30, r17
     c38:	f5 2d       	mov	r31, r5
     c3a:	cf 01       	movw	r24, r30
     c3c:	44 96       	adiw	r24, 0x14	; 20
     c3e:	9f 01       	movw	r18, r30
     c40:	41 91       	ld	r20, Z+
     c42:	db 01       	movw	r26, r22
     c44:	4d 93       	st	X+, r20
     c46:	bd 01       	movw	r22, r26
     c48:	d9 01       	movw	r26, r18
     c4a:	2c 91       	ld	r18, X
     c4c:	22 23       	and	r18, r18
     c4e:	19 f0       	breq	.+6      	; 0xc56 <xTaskGenericCreate+0x8a>
     c50:	e8 17       	cp	r30, r24
     c52:	f9 07       	cpc	r31, r25
     c54:	a1 f7       	brne	.-24     	; 0xc3e <xTaskGenericCreate+0x72>
     c56:	1c a6       	std	Y+44, r1	; 0x2c
     c58:	10 2f       	mov	r17, r16
     c5a:	04 30       	cpi	r16, 0x04	; 4
     c5c:	08 f0       	brcs	.+2      	; 0xc60 <xTaskGenericCreate+0x94>
     c5e:	13 e0       	ldi	r17, 0x03	; 3
     c60:	1e 8b       	std	Y+22, r17	; 0x16
     c62:	1d a7       	std	Y+45, r17	; 0x2d
     c64:	1e a6       	std	Y+46, r1	; 0x2e
     c66:	5e 01       	movw	r10, r28
     c68:	b2 e0       	ldi	r27, 0x02	; 2
     c6a:	ab 0e       	add	r10, r27
     c6c:	b1 1c       	adc	r11, r1
     c6e:	c5 01       	movw	r24, r10
     c70:	0e 94 8b 01 	call	0x316	; 0x316 <vListInitialiseItem>
     c74:	ce 01       	movw	r24, r28
     c76:	0c 96       	adiw	r24, 0x0c	; 12
     c78:	0e 94 8b 01 	call	0x316	; 0x316 <vListInitialiseItem>
     c7c:	d9 87       	std	Y+9, r29	; 0x09
     c7e:	c8 87       	std	Y+8, r28	; 0x08
     c80:	84 e0       	ldi	r24, 0x04	; 4
     c82:	90 e0       	ldi	r25, 0x00	; 0
     c84:	81 1b       	sub	r24, r17
     c86:	91 09       	sbc	r25, r1
     c88:	9d 87       	std	Y+13, r25	; 0x0d
     c8a:	8c 87       	std	Y+12, r24	; 0x0c
     c8c:	db 8b       	std	Y+19, r29	; 0x13
     c8e:	ca 8b       	std	Y+18, r28	; 0x12
     c90:	a3 01       	movw	r20, r6
     c92:	b4 01       	movw	r22, r8
     c94:	c6 01       	movw	r24, r12
     c96:	0e 94 0b 02 	call	0x416	; 0x416 <pxPortInitialiseStack>
     c9a:	99 83       	std	Y+1, r25	; 0x01
     c9c:	88 83       	st	Y, r24
     c9e:	e1 14       	cp	r14, r1
     ca0:	f1 04       	cpc	r15, r1
     ca2:	19 f0       	breq	.+6      	; 0xcaa <xTaskGenericCreate+0xde>
     ca4:	f7 01       	movw	r30, r14
     ca6:	d1 83       	std	Z+1, r29	; 0x01
     ca8:	c0 83       	st	Z, r28
     caa:	0f b6       	in	r0, 0x3f	; 63
     cac:	f8 94       	cli
     cae:	0f 92       	push	r0
     cb0:	80 91 1f 05 	lds	r24, 0x051F	; 0x80051f <uxCurrentNumberOfTasks>
     cb4:	8f 5f       	subi	r24, 0xFF	; 255
     cb6:	80 93 1f 05 	sts	0x051F, r24	; 0x80051f <uxCurrentNumberOfTasks>
     cba:	80 91 6d 05 	lds	r24, 0x056D	; 0x80056d <pxCurrentTCB>
     cbe:	90 91 6e 05 	lds	r25, 0x056E	; 0x80056e <pxCurrentTCB+0x1>
     cc2:	89 2b       	or	r24, r25
     cc4:	a9 f5       	brne	.+106    	; 0xd30 <xTaskGenericCreate+0x164>
     cc6:	d0 93 6e 05 	sts	0x056E, r29	; 0x80056e <pxCurrentTCB+0x1>
     cca:	c0 93 6d 05 	sts	0x056D, r28	; 0x80056d <pxCurrentTCB>
     cce:	80 91 1f 05 	lds	r24, 0x051F	; 0x80051f <uxCurrentNumberOfTasks>
     cd2:	81 30       	cpi	r24, 0x01	; 1
     cd4:	e1 f5       	brne	.+120    	; 0xd4e <xTaskGenericCreate+0x182>
     cd6:	89 e4       	ldi	r24, 0x49	; 73
     cd8:	95 e0       	ldi	r25, 0x05	; 5
     cda:	0e 94 7d 01 	call	0x2fa	; 0x2fa <vListInitialise>
     cde:	82 e5       	ldi	r24, 0x52	; 82
     ce0:	95 e0       	ldi	r25, 0x05	; 5
     ce2:	0e 94 7d 01 	call	0x2fa	; 0x2fa <vListInitialise>
     ce6:	8b e5       	ldi	r24, 0x5B	; 91
     ce8:	95 e0       	ldi	r25, 0x05	; 5
     cea:	0e 94 7d 01 	call	0x2fa	; 0x2fa <vListInitialise>
     cee:	84 e6       	ldi	r24, 0x64	; 100
     cf0:	95 e0       	ldi	r25, 0x05	; 5
     cf2:	0e 94 7d 01 	call	0x2fa	; 0x2fa <vListInitialise>
     cf6:	80 e4       	ldi	r24, 0x40	; 64
     cf8:	95 e0       	ldi	r25, 0x05	; 5
     cfa:	0e 94 7d 01 	call	0x2fa	; 0x2fa <vListInitialise>
     cfe:	87 e3       	ldi	r24, 0x37	; 55
     d00:	95 e0       	ldi	r25, 0x05	; 5
     d02:	0e 94 7d 01 	call	0x2fa	; 0x2fa <vListInitialise>
     d06:	8a e2       	ldi	r24, 0x2A	; 42
     d08:	95 e0       	ldi	r25, 0x05	; 5
     d0a:	0e 94 7d 01 	call	0x2fa	; 0x2fa <vListInitialise>
     d0e:	81 e2       	ldi	r24, 0x21	; 33
     d10:	95 e0       	ldi	r25, 0x05	; 5
     d12:	0e 94 7d 01 	call	0x2fa	; 0x2fa <vListInitialise>
     d16:	80 e4       	ldi	r24, 0x40	; 64
     d18:	95 e0       	ldi	r25, 0x05	; 5
     d1a:	90 93 36 05 	sts	0x0536, r25	; 0x800536 <pxDelayedTaskList+0x1>
     d1e:	80 93 35 05 	sts	0x0535, r24	; 0x800535 <pxDelayedTaskList>
     d22:	87 e3       	ldi	r24, 0x37	; 55
     d24:	95 e0       	ldi	r25, 0x05	; 5
     d26:	90 93 34 05 	sts	0x0534, r25	; 0x800534 <pxOverflowDelayedTaskList+0x1>
     d2a:	80 93 33 05 	sts	0x0533, r24	; 0x800533 <pxOverflowDelayedTaskList>
     d2e:	0f c0       	rjmp	.+30     	; 0xd4e <xTaskGenericCreate+0x182>
     d30:	80 91 1b 05 	lds	r24, 0x051B	; 0x80051b <xSchedulerRunning>
     d34:	81 11       	cpse	r24, r1
     d36:	0b c0       	rjmp	.+22     	; 0xd4e <xTaskGenericCreate+0x182>
     d38:	e0 91 6d 05 	lds	r30, 0x056D	; 0x80056d <pxCurrentTCB>
     d3c:	f0 91 6e 05 	lds	r31, 0x056E	; 0x80056e <pxCurrentTCB+0x1>
     d40:	86 89       	ldd	r24, Z+22	; 0x16
     d42:	08 17       	cp	r16, r24
     d44:	20 f0       	brcs	.+8      	; 0xd4e <xTaskGenericCreate+0x182>
     d46:	d0 93 6e 05 	sts	0x056E, r29	; 0x80056e <pxCurrentTCB+0x1>
     d4a:	c0 93 6d 05 	sts	0x056D, r28	; 0x80056d <pxCurrentTCB>
     d4e:	80 91 17 05 	lds	r24, 0x0517	; 0x800517 <uxTaskNumber>
     d52:	8f 5f       	subi	r24, 0xFF	; 255
     d54:	80 93 17 05 	sts	0x0517, r24	; 0x800517 <uxTaskNumber>
     d58:	8e 89       	ldd	r24, Y+22	; 0x16
     d5a:	90 91 1c 05 	lds	r25, 0x051C	; 0x80051c <uxTopReadyPriority>
     d5e:	98 17       	cp	r25, r24
     d60:	10 f4       	brcc	.+4      	; 0xd66 <xTaskGenericCreate+0x19a>
     d62:	80 93 1c 05 	sts	0x051C, r24	; 0x80051c <uxTopReadyPriority>
     d66:	f9 e0       	ldi	r31, 0x09	; 9
     d68:	8f 9f       	mul	r24, r31
     d6a:	c0 01       	movw	r24, r0
     d6c:	11 24       	eor	r1, r1
     d6e:	b5 01       	movw	r22, r10
     d70:	87 5b       	subi	r24, 0xB7	; 183
     d72:	9a 4f       	sbci	r25, 0xFA	; 250
     d74:	0e 94 8f 01 	call	0x31e	; 0x31e <vListInsertEnd>
     d78:	0f 90       	pop	r0
     d7a:	0f be       	out	0x3f, r0	; 63
     d7c:	80 91 1b 05 	lds	r24, 0x051B	; 0x80051b <xSchedulerRunning>
     d80:	88 23       	and	r24, r24
     d82:	49 f0       	breq	.+18     	; 0xd96 <xTaskGenericCreate+0x1ca>
     d84:	e0 91 6d 05 	lds	r30, 0x056D	; 0x80056d <pxCurrentTCB>
     d88:	f0 91 6e 05 	lds	r31, 0x056E	; 0x80056e <pxCurrentTCB+0x1>
     d8c:	86 89       	ldd	r24, Z+22	; 0x16
     d8e:	80 17       	cp	r24, r16
     d90:	10 f4       	brcc	.+4      	; 0xd96 <xTaskGenericCreate+0x1ca>
     d92:	0e 94 ac 02 	call	0x558	; 0x558 <vPortYield>
     d96:	81 e0       	ldi	r24, 0x01	; 1
     d98:	df 91       	pop	r29
     d9a:	cf 91       	pop	r28
     d9c:	1f 91       	pop	r17
     d9e:	0f 91       	pop	r16
     da0:	ff 90       	pop	r15
     da2:	ef 90       	pop	r14
     da4:	df 90       	pop	r13
     da6:	cf 90       	pop	r12
     da8:	bf 90       	pop	r11
     daa:	af 90       	pop	r10
     dac:	9f 90       	pop	r9
     dae:	8f 90       	pop	r8
     db0:	7f 90       	pop	r7
     db2:	6f 90       	pop	r6
     db4:	5f 90       	pop	r5
     db6:	08 95       	ret

00000db8 <vTaskStartScheduler>:
     db8:	af 92       	push	r10
     dba:	bf 92       	push	r11
     dbc:	cf 92       	push	r12
     dbe:	df 92       	push	r13
     dc0:	ef 92       	push	r14
     dc2:	ff 92       	push	r15
     dc4:	0f 93       	push	r16
     dc6:	a1 2c       	mov	r10, r1
     dc8:	b1 2c       	mov	r11, r1
     dca:	c1 2c       	mov	r12, r1
     dcc:	d1 2c       	mov	r13, r1
     dce:	e1 2c       	mov	r14, r1
     dd0:	f1 2c       	mov	r15, r1
     dd2:	00 e0       	ldi	r16, 0x00	; 0
     dd4:	20 e0       	ldi	r18, 0x00	; 0
     dd6:	30 e0       	ldi	r19, 0x00	; 0
     dd8:	45 e5       	ldi	r20, 0x55	; 85
     dda:	50 e0       	ldi	r21, 0x00	; 0
     ddc:	62 e6       	ldi	r22, 0x62	; 98
     dde:	70 e0       	ldi	r23, 0x00	; 0
     de0:	84 e5       	ldi	r24, 0x54	; 84
     de2:	98 e0       	ldi	r25, 0x08	; 8
     de4:	0e 94 e6 05 	call	0xbcc	; 0xbcc <xTaskGenericCreate>
     de8:	81 30       	cpi	r24, 0x01	; 1
     dea:	81 f4       	brne	.+32     	; 0xe0c <vTaskStartScheduler+0x54>
     dec:	f8 94       	cli
     dee:	80 93 1b 05 	sts	0x051B, r24	; 0x80051b <xSchedulerRunning>
     df2:	10 92 1e 05 	sts	0x051E, r1	; 0x80051e <xTickCount+0x1>
     df6:	10 92 1d 05 	sts	0x051D, r1	; 0x80051d <xTickCount>
     dfa:	0f 91       	pop	r16
     dfc:	ff 90       	pop	r15
     dfe:	ef 90       	pop	r14
     e00:	df 90       	pop	r13
     e02:	cf 90       	pop	r12
     e04:	bf 90       	pop	r11
     e06:	af 90       	pop	r10
     e08:	0c 94 77 02 	jmp	0x4ee	; 0x4ee <xPortStartScheduler>
     e0c:	0f 91       	pop	r16
     e0e:	ff 90       	pop	r15
     e10:	ef 90       	pop	r14
     e12:	df 90       	pop	r13
     e14:	cf 90       	pop	r12
     e16:	bf 90       	pop	r11
     e18:	af 90       	pop	r10
     e1a:	08 95       	ret

00000e1c <vTaskSuspendAll>:
     e1c:	80 91 16 05 	lds	r24, 0x0516	; 0x800516 <uxSchedulerSuspended>
     e20:	8f 5f       	subi	r24, 0xFF	; 255
     e22:	80 93 16 05 	sts	0x0516, r24	; 0x800516 <uxSchedulerSuspended>
     e26:	08 95       	ret

00000e28 <xTaskIncrementTick>:
     e28:	cf 92       	push	r12
     e2a:	df 92       	push	r13
     e2c:	ef 92       	push	r14
     e2e:	ff 92       	push	r15
     e30:	0f 93       	push	r16
     e32:	1f 93       	push	r17
     e34:	cf 93       	push	r28
     e36:	df 93       	push	r29
     e38:	80 91 16 05 	lds	r24, 0x0516	; 0x800516 <uxSchedulerSuspended>
     e3c:	81 11       	cpse	r24, r1
     e3e:	8f c0       	rjmp	.+286    	; 0xf5e <xTaskIncrementTick+0x136>
     e40:	80 91 1d 05 	lds	r24, 0x051D	; 0x80051d <xTickCount>
     e44:	90 91 1e 05 	lds	r25, 0x051E	; 0x80051e <xTickCount+0x1>
     e48:	01 96       	adiw	r24, 0x01	; 1
     e4a:	90 93 1e 05 	sts	0x051E, r25	; 0x80051e <xTickCount+0x1>
     e4e:	80 93 1d 05 	sts	0x051D, r24	; 0x80051d <xTickCount>
     e52:	e0 90 1d 05 	lds	r14, 0x051D	; 0x80051d <xTickCount>
     e56:	f0 90 1e 05 	lds	r15, 0x051E	; 0x80051e <xTickCount+0x1>
     e5a:	e1 14       	cp	r14, r1
     e5c:	f1 04       	cpc	r15, r1
     e5e:	b9 f4       	brne	.+46     	; 0xe8e <xTaskIncrementTick+0x66>
     e60:	80 91 35 05 	lds	r24, 0x0535	; 0x800535 <pxDelayedTaskList>
     e64:	90 91 36 05 	lds	r25, 0x0536	; 0x800536 <pxDelayedTaskList+0x1>
     e68:	20 91 33 05 	lds	r18, 0x0533	; 0x800533 <pxOverflowDelayedTaskList>
     e6c:	30 91 34 05 	lds	r19, 0x0534	; 0x800534 <pxOverflowDelayedTaskList+0x1>
     e70:	30 93 36 05 	sts	0x0536, r19	; 0x800536 <pxDelayedTaskList+0x1>
     e74:	20 93 35 05 	sts	0x0535, r18	; 0x800535 <pxDelayedTaskList>
     e78:	90 93 34 05 	sts	0x0534, r25	; 0x800534 <pxOverflowDelayedTaskList+0x1>
     e7c:	80 93 33 05 	sts	0x0533, r24	; 0x800533 <pxOverflowDelayedTaskList>
     e80:	80 91 18 05 	lds	r24, 0x0518	; 0x800518 <xNumOfOverflows>
     e84:	8f 5f       	subi	r24, 0xFF	; 255
     e86:	80 93 18 05 	sts	0x0518, r24	; 0x800518 <xNumOfOverflows>
     e8a:	0e 94 93 05 	call	0xb26	; 0xb26 <prvResetNextTaskUnblockTime>
     e8e:	80 91 60 00 	lds	r24, 0x0060	; 0x800060 <__DATA_REGION_ORIGIN__>
     e92:	90 91 61 00 	lds	r25, 0x0061	; 0x800061 <__DATA_REGION_ORIGIN__+0x1>
     e96:	c0 e0       	ldi	r28, 0x00	; 0
     e98:	e8 16       	cp	r14, r24
     e9a:	f9 06       	cpc	r15, r25
     e9c:	08 f4       	brcc	.+2      	; 0xea0 <xTaskIncrementTick+0x78>
     e9e:	4f c0       	rjmp	.+158    	; 0xf3e <xTaskIncrementTick+0x116>
     ea0:	d9 e0       	ldi	r29, 0x09	; 9
     ea2:	e0 91 35 05 	lds	r30, 0x0535	; 0x800535 <pxDelayedTaskList>
     ea6:	f0 91 36 05 	lds	r31, 0x0536	; 0x800536 <pxDelayedTaskList+0x1>
     eaa:	80 81       	ld	r24, Z
     eac:	81 11       	cpse	r24, r1
     eae:	03 c0       	rjmp	.+6      	; 0xeb6 <xTaskIncrementTick+0x8e>
     eb0:	8f ef       	ldi	r24, 0xFF	; 255
     eb2:	9f ef       	ldi	r25, 0xFF	; 255
     eb4:	11 c0       	rjmp	.+34     	; 0xed8 <xTaskIncrementTick+0xb0>
     eb6:	e0 91 35 05 	lds	r30, 0x0535	; 0x800535 <pxDelayedTaskList>
     eba:	f0 91 36 05 	lds	r31, 0x0536	; 0x800536 <pxDelayedTaskList+0x1>
     ebe:	05 80       	ldd	r0, Z+5	; 0x05
     ec0:	f6 81       	ldd	r31, Z+6	; 0x06
     ec2:	e0 2d       	mov	r30, r0
     ec4:	06 81       	ldd	r16, Z+6	; 0x06
     ec6:	17 81       	ldd	r17, Z+7	; 0x07
     ec8:	d8 01       	movw	r26, r16
     eca:	12 96       	adiw	r26, 0x02	; 2
     ecc:	8d 91       	ld	r24, X+
     ece:	9c 91       	ld	r25, X
     ed0:	13 97       	sbiw	r26, 0x03	; 3
     ed2:	e8 16       	cp	r14, r24
     ed4:	f9 06       	cpc	r15, r25
     ed6:	28 f4       	brcc	.+10     	; 0xee2 <xTaskIncrementTick+0xba>
     ed8:	90 93 61 00 	sts	0x0061, r25	; 0x800061 <__DATA_REGION_ORIGIN__+0x1>
     edc:	80 93 60 00 	sts	0x0060, r24	; 0x800060 <__DATA_REGION_ORIGIN__>
     ee0:	2e c0       	rjmp	.+92     	; 0xf3e <xTaskIncrementTick+0x116>
     ee2:	68 01       	movw	r12, r16
     ee4:	b2 e0       	ldi	r27, 0x02	; 2
     ee6:	cb 0e       	add	r12, r27
     ee8:	d1 1c       	adc	r13, r1
     eea:	c6 01       	movw	r24, r12
     eec:	0e 94 e8 01 	call	0x3d0	; 0x3d0 <uxListRemove>
     ef0:	f8 01       	movw	r30, r16
     ef2:	84 89       	ldd	r24, Z+20	; 0x14
     ef4:	95 89       	ldd	r25, Z+21	; 0x15
     ef6:	89 2b       	or	r24, r25
     ef8:	21 f0       	breq	.+8      	; 0xf02 <xTaskIncrementTick+0xda>
     efa:	c8 01       	movw	r24, r16
     efc:	0c 96       	adiw	r24, 0x0c	; 12
     efe:	0e 94 e8 01 	call	0x3d0	; 0x3d0 <uxListRemove>
     f02:	d8 01       	movw	r26, r16
     f04:	56 96       	adiw	r26, 0x16	; 22
     f06:	8c 91       	ld	r24, X
     f08:	90 91 1c 05 	lds	r25, 0x051C	; 0x80051c <uxTopReadyPriority>
     f0c:	98 17       	cp	r25, r24
     f0e:	10 f4       	brcc	.+4      	; 0xf14 <xTaskIncrementTick+0xec>
     f10:	80 93 1c 05 	sts	0x051C, r24	; 0x80051c <uxTopReadyPriority>
     f14:	d8 9f       	mul	r29, r24
     f16:	c0 01       	movw	r24, r0
     f18:	11 24       	eor	r1, r1
     f1a:	b6 01       	movw	r22, r12
     f1c:	87 5b       	subi	r24, 0xB7	; 183
     f1e:	9a 4f       	sbci	r25, 0xFA	; 250
     f20:	0e 94 8f 01 	call	0x31e	; 0x31e <vListInsertEnd>
     f24:	e0 91 6d 05 	lds	r30, 0x056D	; 0x80056d <pxCurrentTCB>
     f28:	f0 91 6e 05 	lds	r31, 0x056E	; 0x80056e <pxCurrentTCB+0x1>
     f2c:	d8 01       	movw	r26, r16
     f2e:	56 96       	adiw	r26, 0x16	; 22
     f30:	9c 91       	ld	r25, X
     f32:	86 89       	ldd	r24, Z+22	; 0x16
     f34:	98 17       	cp	r25, r24
     f36:	08 f4       	brcc	.+2      	; 0xf3a <xTaskIncrementTick+0x112>
     f38:	b4 cf       	rjmp	.-152    	; 0xea2 <xTaskIncrementTick+0x7a>
     f3a:	c1 e0       	ldi	r28, 0x01	; 1
     f3c:	b2 cf       	rjmp	.-156    	; 0xea2 <xTaskIncrementTick+0x7a>
     f3e:	e0 91 6d 05 	lds	r30, 0x056D	; 0x80056d <pxCurrentTCB>
     f42:	f0 91 6e 05 	lds	r31, 0x056E	; 0x80056e <pxCurrentTCB+0x1>
     f46:	e6 89       	ldd	r30, Z+22	; 0x16
     f48:	b9 e0       	ldi	r27, 0x09	; 9
     f4a:	eb 9f       	mul	r30, r27
     f4c:	f0 01       	movw	r30, r0
     f4e:	11 24       	eor	r1, r1
     f50:	e7 5b       	subi	r30, 0xB7	; 183
     f52:	fa 4f       	sbci	r31, 0xFA	; 250
     f54:	80 81       	ld	r24, Z
     f56:	82 30       	cpi	r24, 0x02	; 2
     f58:	40 f0       	brcs	.+16     	; 0xf6a <xTaskIncrementTick+0x142>
     f5a:	c1 e0       	ldi	r28, 0x01	; 1
     f5c:	06 c0       	rjmp	.+12     	; 0xf6a <xTaskIncrementTick+0x142>
     f5e:	80 91 1a 05 	lds	r24, 0x051A	; 0x80051a <uxPendedTicks>
     f62:	8f 5f       	subi	r24, 0xFF	; 255
     f64:	80 93 1a 05 	sts	0x051A, r24	; 0x80051a <uxPendedTicks>
     f68:	c0 e0       	ldi	r28, 0x00	; 0
     f6a:	80 91 19 05 	lds	r24, 0x0519	; 0x800519 <xYieldPending>
     f6e:	81 11       	cpse	r24, r1
     f70:	c1 e0       	ldi	r28, 0x01	; 1
     f72:	8c 2f       	mov	r24, r28
     f74:	df 91       	pop	r29
     f76:	cf 91       	pop	r28
     f78:	1f 91       	pop	r17
     f7a:	0f 91       	pop	r16
     f7c:	ff 90       	pop	r15
     f7e:	ef 90       	pop	r14
     f80:	df 90       	pop	r13
     f82:	cf 90       	pop	r12
     f84:	08 95       	ret

00000f86 <xTaskResumeAll>:
     f86:	ef 92       	push	r14
     f88:	ff 92       	push	r15
     f8a:	0f 93       	push	r16
     f8c:	1f 93       	push	r17
     f8e:	cf 93       	push	r28
     f90:	df 93       	push	r29
     f92:	0f b6       	in	r0, 0x3f	; 63
     f94:	f8 94       	cli
     f96:	0f 92       	push	r0
     f98:	80 91 16 05 	lds	r24, 0x0516	; 0x800516 <uxSchedulerSuspended>
     f9c:	81 50       	subi	r24, 0x01	; 1
     f9e:	80 93 16 05 	sts	0x0516, r24	; 0x800516 <uxSchedulerSuspended>
     fa2:	80 91 16 05 	lds	r24, 0x0516	; 0x800516 <uxSchedulerSuspended>
     fa6:	88 23       	and	r24, r24
     fa8:	11 f0       	breq	.+4      	; 0xfae <xTaskResumeAll+0x28>
     faa:	80 e0       	ldi	r24, 0x00	; 0
     fac:	53 c0       	rjmp	.+166    	; 0x1054 <xTaskResumeAll+0xce>
     fae:	80 91 1f 05 	lds	r24, 0x051F	; 0x80051f <uxCurrentNumberOfTasks>
     fb2:	88 23       	and	r24, r24
     fb4:	d1 f3       	breq	.-12     	; 0xfaa <xTaskResumeAll+0x24>
     fb6:	89 e0       	ldi	r24, 0x09	; 9
     fb8:	f8 2e       	mov	r15, r24
     fba:	ee 24       	eor	r14, r14
     fbc:	e3 94       	inc	r14
     fbe:	80 91 2a 05 	lds	r24, 0x052A	; 0x80052a <xPendingReadyList>
     fc2:	88 23       	and	r24, r24
     fc4:	51 f1       	breq	.+84     	; 0x101a <xTaskResumeAll+0x94>
     fc6:	e0 91 2f 05 	lds	r30, 0x052F	; 0x80052f <xPendingReadyList+0x5>
     fca:	f0 91 30 05 	lds	r31, 0x0530	; 0x800530 <xPendingReadyList+0x6>
     fce:	c6 81       	ldd	r28, Z+6	; 0x06
     fd0:	d7 81       	ldd	r29, Z+7	; 0x07
     fd2:	ce 01       	movw	r24, r28
     fd4:	0c 96       	adiw	r24, 0x0c	; 12
     fd6:	0e 94 e8 01 	call	0x3d0	; 0x3d0 <uxListRemove>
     fda:	8e 01       	movw	r16, r28
     fdc:	0e 5f       	subi	r16, 0xFE	; 254
     fde:	1f 4f       	sbci	r17, 0xFF	; 255
     fe0:	c8 01       	movw	r24, r16
     fe2:	0e 94 e8 01 	call	0x3d0	; 0x3d0 <uxListRemove>
     fe6:	8e 89       	ldd	r24, Y+22	; 0x16
     fe8:	90 91 1c 05 	lds	r25, 0x051C	; 0x80051c <uxTopReadyPriority>
     fec:	98 17       	cp	r25, r24
     fee:	10 f4       	brcc	.+4      	; 0xff4 <xTaskResumeAll+0x6e>
     ff0:	80 93 1c 05 	sts	0x051C, r24	; 0x80051c <uxTopReadyPriority>
     ff4:	f8 9e       	mul	r15, r24
     ff6:	c0 01       	movw	r24, r0
     ff8:	11 24       	eor	r1, r1
     ffa:	b8 01       	movw	r22, r16
     ffc:	87 5b       	subi	r24, 0xB7	; 183
     ffe:	9a 4f       	sbci	r25, 0xFA	; 250
    1000:	0e 94 8f 01 	call	0x31e	; 0x31e <vListInsertEnd>
    1004:	e0 91 6d 05 	lds	r30, 0x056D	; 0x80056d <pxCurrentTCB>
    1008:	f0 91 6e 05 	lds	r31, 0x056E	; 0x80056e <pxCurrentTCB+0x1>
    100c:	9e 89       	ldd	r25, Y+22	; 0x16
    100e:	86 89       	ldd	r24, Z+22	; 0x16
    1010:	98 17       	cp	r25, r24
    1012:	a8 f2       	brcs	.-86     	; 0xfbe <xTaskResumeAll+0x38>
    1014:	e0 92 19 05 	sts	0x0519, r14	; 0x800519 <xYieldPending>
    1018:	d2 cf       	rjmp	.-92     	; 0xfbe <xTaskResumeAll+0x38>
    101a:	80 91 1a 05 	lds	r24, 0x051A	; 0x80051a <uxPendedTicks>
    101e:	81 11       	cpse	r24, r1
    1020:	09 c0       	rjmp	.+18     	; 0x1034 <xTaskResumeAll+0xae>
    1022:	80 91 19 05 	lds	r24, 0x0519	; 0x800519 <xYieldPending>
    1026:	81 30       	cpi	r24, 0x01	; 1
    1028:	09 f0       	breq	.+2      	; 0x102c <xTaskResumeAll+0xa6>
    102a:	bf cf       	rjmp	.-130    	; 0xfaa <xTaskResumeAll+0x24>
    102c:	0e 94 ac 02 	call	0x558	; 0x558 <vPortYield>
    1030:	81 e0       	ldi	r24, 0x01	; 1
    1032:	10 c0       	rjmp	.+32     	; 0x1054 <xTaskResumeAll+0xce>
    1034:	c1 e0       	ldi	r28, 0x01	; 1
    1036:	80 91 1a 05 	lds	r24, 0x051A	; 0x80051a <uxPendedTicks>
    103a:	88 23       	and	r24, r24
    103c:	91 f3       	breq	.-28     	; 0x1022 <xTaskResumeAll+0x9c>
    103e:	0e 94 14 07 	call	0xe28	; 0xe28 <xTaskIncrementTick>
    1042:	81 11       	cpse	r24, r1
    1044:	c0 93 19 05 	sts	0x0519, r28	; 0x800519 <xYieldPending>
    1048:	80 91 1a 05 	lds	r24, 0x051A	; 0x80051a <uxPendedTicks>
    104c:	81 50       	subi	r24, 0x01	; 1
    104e:	80 93 1a 05 	sts	0x051A, r24	; 0x80051a <uxPendedTicks>
    1052:	f1 cf       	rjmp	.-30     	; 0x1036 <xTaskResumeAll+0xb0>
    1054:	0f 90       	pop	r0
    1056:	0f be       	out	0x3f, r0	; 63
    1058:	df 91       	pop	r29
    105a:	cf 91       	pop	r28
    105c:	1f 91       	pop	r17
    105e:	0f 91       	pop	r16
    1060:	ff 90       	pop	r15
    1062:	ef 90       	pop	r14
    1064:	08 95       	ret

00001066 <vTaskDelay>:
    1066:	cf 93       	push	r28
    1068:	df 93       	push	r29
    106a:	ec 01       	movw	r28, r24
    106c:	89 2b       	or	r24, r25
    106e:	19 f4       	brne	.+6      	; 0x1076 <vTaskDelay+0x10>
    1070:	0e 94 ac 02 	call	0x558	; 0x558 <vPortYield>
    1074:	16 c0       	rjmp	.+44     	; 0x10a2 <vTaskDelay+0x3c>
    1076:	0e 94 0e 07 	call	0xe1c	; 0xe1c <vTaskSuspendAll>
    107a:	80 91 1d 05 	lds	r24, 0x051D	; 0x80051d <xTickCount>
    107e:	90 91 1e 05 	lds	r25, 0x051E	; 0x80051e <xTickCount+0x1>
    1082:	c8 0f       	add	r28, r24
    1084:	d9 1f       	adc	r29, r25
    1086:	80 91 6d 05 	lds	r24, 0x056D	; 0x80056d <pxCurrentTCB>
    108a:	90 91 6e 05 	lds	r25, 0x056E	; 0x80056e <pxCurrentTCB+0x1>
    108e:	02 96       	adiw	r24, 0x02	; 2
    1090:	0e 94 e8 01 	call	0x3d0	; 0x3d0 <uxListRemove>
    1094:	ce 01       	movw	r24, r28
    1096:	0e 94 ae 05 	call	0xb5c	; 0xb5c <prvAddCurrentTaskToDelayedList>
    109a:	0e 94 c3 07 	call	0xf86	; 0xf86 <xTaskResumeAll>
    109e:	88 23       	and	r24, r24
    10a0:	39 f3       	breq	.-50     	; 0x1070 <vTaskDelay+0xa>
    10a2:	df 91       	pop	r29
    10a4:	cf 91       	pop	r28
    10a6:	08 95       	ret

000010a8 <prvIdleTask>:
    10a8:	80 91 20 05 	lds	r24, 0x0520	; 0x800520 <uxTasksDeleted>
    10ac:	88 23       	and	r24, r24
    10ae:	49 f1       	breq	.+82     	; 0x1102 <prvIdleTask+0x5a>
    10b0:	0e 94 0e 07 	call	0xe1c	; 0xe1c <vTaskSuspendAll>
    10b4:	c0 91 21 05 	lds	r28, 0x0521	; 0x800521 <xTasksWaitingTermination>
    10b8:	0e 94 c3 07 	call	0xf86	; 0xf86 <xTaskResumeAll>
    10bc:	cc 23       	and	r28, r28
    10be:	a1 f3       	breq	.-24     	; 0x10a8 <prvIdleTask>
    10c0:	0f b6       	in	r0, 0x3f	; 63
    10c2:	f8 94       	cli
    10c4:	0f 92       	push	r0
    10c6:	e0 91 26 05 	lds	r30, 0x0526	; 0x800526 <xTasksWaitingTermination+0x5>
    10ca:	f0 91 27 05 	lds	r31, 0x0527	; 0x800527 <xTasksWaitingTermination+0x6>
    10ce:	c6 81       	ldd	r28, Z+6	; 0x06
    10d0:	d7 81       	ldd	r29, Z+7	; 0x07
    10d2:	ce 01       	movw	r24, r28
    10d4:	02 96       	adiw	r24, 0x02	; 2
    10d6:	0e 94 e8 01 	call	0x3d0	; 0x3d0 <uxListRemove>
    10da:	80 91 1f 05 	lds	r24, 0x051F	; 0x80051f <uxCurrentNumberOfTasks>
    10de:	81 50       	subi	r24, 0x01	; 1
    10e0:	80 93 1f 05 	sts	0x051F, r24	; 0x80051f <uxCurrentNumberOfTasks>
    10e4:	80 91 20 05 	lds	r24, 0x0520	; 0x800520 <uxTasksDeleted>
    10e8:	81 50       	subi	r24, 0x01	; 1
    10ea:	80 93 20 05 	sts	0x0520, r24	; 0x800520 <uxTasksDeleted>
    10ee:	0f 90       	pop	r0
    10f0:	0f be       	out	0x3f, r0	; 63
    10f2:	8f 89       	ldd	r24, Y+23	; 0x17
    10f4:	98 8d       	ldd	r25, Y+24	; 0x18
    10f6:	0e 94 7c 01 	call	0x2f8	; 0x2f8 <vPortFree>
    10fa:	ce 01       	movw	r24, r28
    10fc:	0e 94 7c 01 	call	0x2f8	; 0x2f8 <vPortFree>
    1100:	d3 cf       	rjmp	.-90     	; 0x10a8 <prvIdleTask>
    1102:	80 91 49 05 	lds	r24, 0x0549	; 0x800549 <pxReadyTasksLists>
    1106:	82 30       	cpi	r24, 0x02	; 2
    1108:	78 f2       	brcs	.-98     	; 0x10a8 <prvIdleTask>
    110a:	0e 94 ac 02 	call	0x558	; 0x558 <vPortYield>
    110e:	cc cf       	rjmp	.-104    	; 0x10a8 <prvIdleTask>

00001110 <vTaskSwitchContext>:
    1110:	80 91 16 05 	lds	r24, 0x0516	; 0x800516 <uxSchedulerSuspended>
    1114:	88 23       	and	r24, r24
    1116:	21 f0       	breq	.+8      	; 0x1120 <vTaskSwitchContext+0x10>
    1118:	81 e0       	ldi	r24, 0x01	; 1
    111a:	80 93 19 05 	sts	0x0519, r24	; 0x800519 <xYieldPending>
    111e:	08 95       	ret
    1120:	10 92 19 05 	sts	0x0519, r1	; 0x800519 <xYieldPending>
    1124:	99 e0       	ldi	r25, 0x09	; 9
    1126:	e0 91 1c 05 	lds	r30, 0x051C	; 0x80051c <uxTopReadyPriority>
    112a:	9e 9f       	mul	r25, r30
    112c:	f0 01       	movw	r30, r0
    112e:	11 24       	eor	r1, r1
    1130:	e7 5b       	subi	r30, 0xB7	; 183
    1132:	fa 4f       	sbci	r31, 0xFA	; 250
    1134:	80 81       	ld	r24, Z
    1136:	81 11       	cpse	r24, r1
    1138:	06 c0       	rjmp	.+12     	; 0x1146 <vTaskSwitchContext+0x36>
    113a:	80 91 1c 05 	lds	r24, 0x051C	; 0x80051c <uxTopReadyPriority>
    113e:	81 50       	subi	r24, 0x01	; 1
    1140:	80 93 1c 05 	sts	0x051C, r24	; 0x80051c <uxTopReadyPriority>
    1144:	f0 cf       	rjmp	.-32     	; 0x1126 <vTaskSwitchContext+0x16>
    1146:	80 91 1c 05 	lds	r24, 0x051C	; 0x80051c <uxTopReadyPriority>
    114a:	90 e0       	ldi	r25, 0x00	; 0
    114c:	49 e0       	ldi	r20, 0x09	; 9
    114e:	48 9f       	mul	r20, r24
    1150:	90 01       	movw	r18, r0
    1152:	49 9f       	mul	r20, r25
    1154:	30 0d       	add	r19, r0
    1156:	11 24       	eor	r1, r1
    1158:	f9 01       	movw	r30, r18
    115a:	e7 5b       	subi	r30, 0xB7	; 183
    115c:	fa 4f       	sbci	r31, 0xFA	; 250
    115e:	a1 81       	ldd	r26, Z+1	; 0x01
    1160:	b2 81       	ldd	r27, Z+2	; 0x02
    1162:	12 96       	adiw	r26, 0x02	; 2
    1164:	0d 90       	ld	r0, X+
    1166:	bc 91       	ld	r27, X
    1168:	a0 2d       	mov	r26, r0
    116a:	b2 83       	std	Z+2, r27	; 0x02
    116c:	a1 83       	std	Z+1, r26	; 0x01
    116e:	24 5b       	subi	r18, 0xB4	; 180
    1170:	3a 4f       	sbci	r19, 0xFA	; 250
    1172:	a2 17       	cp	r26, r18
    1174:	b3 07       	cpc	r27, r19
    1176:	31 f4       	brne	.+12     	; 0x1184 <vTaskSwitchContext+0x74>
    1178:	12 96       	adiw	r26, 0x02	; 2
    117a:	2d 91       	ld	r18, X+
    117c:	3c 91       	ld	r19, X
    117e:	13 97       	sbiw	r26, 0x03	; 3
    1180:	32 83       	std	Z+2, r19	; 0x02
    1182:	21 83       	std	Z+1, r18	; 0x01
    1184:	29 e0       	ldi	r18, 0x09	; 9
    1186:	28 9f       	mul	r18, r24
    1188:	f0 01       	movw	r30, r0
    118a:	29 9f       	mul	r18, r25
    118c:	f0 0d       	add	r31, r0
    118e:	11 24       	eor	r1, r1
    1190:	e7 5b       	subi	r30, 0xB7	; 183
    1192:	fa 4f       	sbci	r31, 0xFA	; 250
    1194:	01 80       	ldd	r0, Z+1	; 0x01
    1196:	f2 81       	ldd	r31, Z+2	; 0x02
    1198:	e0 2d       	mov	r30, r0
    119a:	86 81       	ldd	r24, Z+6	; 0x06
    119c:	97 81       	ldd	r25, Z+7	; 0x07
    119e:	90 93 6e 05 	sts	0x056E, r25	; 0x80056e <pxCurrentTCB+0x1>
    11a2:	80 93 6d 05 	sts	0x056D, r24	; 0x80056d <pxCurrentTCB>
    11a6:	08 95       	ret

000011a8 <vTaskPlaceOnEventList>:
    11a8:	cf 93       	push	r28
    11aa:	df 93       	push	r29
    11ac:	eb 01       	movw	r28, r22
    11ae:	60 91 6d 05 	lds	r22, 0x056D	; 0x80056d <pxCurrentTCB>
    11b2:	70 91 6e 05 	lds	r23, 0x056E	; 0x80056e <pxCurrentTCB+0x1>
    11b6:	64 5f       	subi	r22, 0xF4	; 244
    11b8:	7f 4f       	sbci	r23, 0xFF	; 255
    11ba:	0e 94 b0 01 	call	0x360	; 0x360 <vListInsert>
    11be:	80 91 6d 05 	lds	r24, 0x056D	; 0x80056d <pxCurrentTCB>
    11c2:	90 91 6e 05 	lds	r25, 0x056E	; 0x80056e <pxCurrentTCB+0x1>
    11c6:	02 96       	adiw	r24, 0x02	; 2
    11c8:	0e 94 e8 01 	call	0x3d0	; 0x3d0 <uxListRemove>
    11cc:	80 91 1d 05 	lds	r24, 0x051D	; 0x80051d <xTickCount>
    11d0:	90 91 1e 05 	lds	r25, 0x051E	; 0x80051e <xTickCount+0x1>
    11d4:	8c 0f       	add	r24, r28
    11d6:	9d 1f       	adc	r25, r29
    11d8:	df 91       	pop	r29
    11da:	cf 91       	pop	r28
    11dc:	0c 94 ae 05 	jmp	0xb5c	; 0xb5c <prvAddCurrentTaskToDelayedList>

000011e0 <xTaskRemoveFromEventList>:
    11e0:	0f 93       	push	r16
    11e2:	1f 93       	push	r17
    11e4:	cf 93       	push	r28
    11e6:	df 93       	push	r29
    11e8:	dc 01       	movw	r26, r24
    11ea:	15 96       	adiw	r26, 0x05	; 5
    11ec:	ed 91       	ld	r30, X+
    11ee:	fc 91       	ld	r31, X
    11f0:	16 97       	sbiw	r26, 0x06	; 6
    11f2:	c6 81       	ldd	r28, Z+6	; 0x06
    11f4:	d7 81       	ldd	r29, Z+7	; 0x07
    11f6:	8e 01       	movw	r16, r28
    11f8:	04 5f       	subi	r16, 0xF4	; 244
    11fa:	1f 4f       	sbci	r17, 0xFF	; 255
    11fc:	c8 01       	movw	r24, r16
    11fe:	0e 94 e8 01 	call	0x3d0	; 0x3d0 <uxListRemove>
    1202:	80 91 16 05 	lds	r24, 0x0516	; 0x800516 <uxSchedulerSuspended>
    1206:	81 11       	cpse	r24, r1
    1208:	14 c0       	rjmp	.+40     	; 0x1232 <xTaskRemoveFromEventList+0x52>
    120a:	0a 50       	subi	r16, 0x0A	; 10
    120c:	11 09       	sbc	r17, r1
    120e:	c8 01       	movw	r24, r16
    1210:	0e 94 e8 01 	call	0x3d0	; 0x3d0 <uxListRemove>
    1214:	8e 89       	ldd	r24, Y+22	; 0x16
    1216:	90 91 1c 05 	lds	r25, 0x051C	; 0x80051c <uxTopReadyPriority>
    121a:	98 17       	cp	r25, r24
    121c:	10 f4       	brcc	.+4      	; 0x1222 <xTaskRemoveFromEventList+0x42>
    121e:	80 93 1c 05 	sts	0x051C, r24	; 0x80051c <uxTopReadyPriority>
    1222:	b9 e0       	ldi	r27, 0x09	; 9
    1224:	8b 9f       	mul	r24, r27
    1226:	c0 01       	movw	r24, r0
    1228:	11 24       	eor	r1, r1
    122a:	b8 01       	movw	r22, r16
    122c:	87 5b       	subi	r24, 0xB7	; 183
    122e:	9a 4f       	sbci	r25, 0xFA	; 250
    1230:	03 c0       	rjmp	.+6      	; 0x1238 <xTaskRemoveFromEventList+0x58>
    1232:	b8 01       	movw	r22, r16
    1234:	8a e2       	ldi	r24, 0x2A	; 42
    1236:	95 e0       	ldi	r25, 0x05	; 5
    1238:	0e 94 8f 01 	call	0x31e	; 0x31e <vListInsertEnd>
    123c:	e0 91 6d 05 	lds	r30, 0x056D	; 0x80056d <pxCurrentTCB>
    1240:	f0 91 6e 05 	lds	r31, 0x056E	; 0x80056e <pxCurrentTCB+0x1>
    1244:	9e 89       	ldd	r25, Y+22	; 0x16
    1246:	86 89       	ldd	r24, Z+22	; 0x16
    1248:	89 17       	cp	r24, r25
    124a:	20 f4       	brcc	.+8      	; 0x1254 <xTaskRemoveFromEventList+0x74>
    124c:	81 e0       	ldi	r24, 0x01	; 1
    124e:	80 93 19 05 	sts	0x0519, r24	; 0x800519 <xYieldPending>
    1252:	01 c0       	rjmp	.+2      	; 0x1256 <xTaskRemoveFromEventList+0x76>
    1254:	80 e0       	ldi	r24, 0x00	; 0
    1256:	df 91       	pop	r29
    1258:	cf 91       	pop	r28
    125a:	1f 91       	pop	r17
    125c:	0f 91       	pop	r16
    125e:	08 95       	ret

00001260 <vTaskSetTimeOutState>:
    1260:	20 91 18 05 	lds	r18, 0x0518	; 0x800518 <xNumOfOverflows>
    1264:	fc 01       	movw	r30, r24
    1266:	20 83       	st	Z, r18
    1268:	20 91 1d 05 	lds	r18, 0x051D	; 0x80051d <xTickCount>
    126c:	30 91 1e 05 	lds	r19, 0x051E	; 0x80051e <xTickCount+0x1>
    1270:	32 83       	std	Z+2, r19	; 0x02
    1272:	21 83       	std	Z+1, r18	; 0x01
    1274:	08 95       	ret

00001276 <xTaskCheckForTimeOut>:
    1276:	0f b6       	in	r0, 0x3f	; 63
    1278:	f8 94       	cli
    127a:	0f 92       	push	r0
    127c:	e0 91 1d 05 	lds	r30, 0x051D	; 0x80051d <xTickCount>
    1280:	f0 91 1e 05 	lds	r31, 0x051E	; 0x80051e <xTickCount+0x1>
    1284:	40 91 18 05 	lds	r20, 0x0518	; 0x800518 <xNumOfOverflows>
    1288:	dc 01       	movw	r26, r24
    128a:	5c 91       	ld	r21, X
    128c:	11 96       	adiw	r26, 0x01	; 1
    128e:	2d 91       	ld	r18, X+
    1290:	3c 91       	ld	r19, X
    1292:	12 97       	sbiw	r26, 0x02	; 2
    1294:	54 17       	cp	r21, r20
    1296:	19 f0       	breq	.+6      	; 0x129e <xTaskCheckForTimeOut+0x28>
    1298:	e2 17       	cp	r30, r18
    129a:	f3 07       	cpc	r31, r19
    129c:	a0 f4       	brcc	.+40     	; 0x12c6 <xTaskCheckForTimeOut+0x50>
    129e:	db 01       	movw	r26, r22
    12a0:	4d 91       	ld	r20, X+
    12a2:	5c 91       	ld	r21, X
    12a4:	df 01       	movw	r26, r30
    12a6:	a2 1b       	sub	r26, r18
    12a8:	b3 0b       	sbc	r27, r19
    12aa:	a4 17       	cp	r26, r20
    12ac:	b5 07       	cpc	r27, r21
    12ae:	58 f4       	brcc	.+22     	; 0x12c6 <xTaskCheckForTimeOut+0x50>
    12b0:	db 01       	movw	r26, r22
    12b2:	2e 1b       	sub	r18, r30
    12b4:	3f 0b       	sbc	r19, r31
    12b6:	24 0f       	add	r18, r20
    12b8:	35 1f       	adc	r19, r21
    12ba:	2d 93       	st	X+, r18
    12bc:	3c 93       	st	X, r19
    12be:	0e 94 30 09 	call	0x1260	; 0x1260 <vTaskSetTimeOutState>
    12c2:	80 e0       	ldi	r24, 0x00	; 0
    12c4:	01 c0       	rjmp	.+2      	; 0x12c8 <xTaskCheckForTimeOut+0x52>
    12c6:	81 e0       	ldi	r24, 0x01	; 1
    12c8:	0f 90       	pop	r0
    12ca:	0f be       	out	0x3f, r0	; 63
    12cc:	08 95       	ret

000012ce <vTaskMissedYield>:
    12ce:	81 e0       	ldi	r24, 0x01	; 1
    12d0:	80 93 19 05 	sts	0x0519, r24	; 0x800519 <xYieldPending>
    12d4:	08 95       	ret

000012d6 <vTaskPriorityInherit>:
    12d6:	0f 93       	push	r16
    12d8:	1f 93       	push	r17
    12da:	cf 93       	push	r28
    12dc:	df 93       	push	r29
    12de:	fc 01       	movw	r30, r24
    12e0:	89 2b       	or	r24, r25
    12e2:	09 f4       	brne	.+2      	; 0x12e6 <vTaskPriorityInherit+0x10>
    12e4:	4c c0       	rjmp	.+152    	; 0x137e <vTaskPriorityInherit+0xa8>
    12e6:	86 89       	ldd	r24, Z+22	; 0x16
    12e8:	a0 91 6d 05 	lds	r26, 0x056D	; 0x80056d <pxCurrentTCB>
    12ec:	b0 91 6e 05 	lds	r27, 0x056E	; 0x80056e <pxCurrentTCB+0x1>
    12f0:	56 96       	adiw	r26, 0x16	; 22
    12f2:	9c 91       	ld	r25, X
    12f4:	89 17       	cp	r24, r25
    12f6:	08 f0       	brcs	.+2      	; 0x12fa <vTaskPriorityInherit+0x24>
    12f8:	42 c0       	rjmp	.+132    	; 0x137e <vTaskPriorityInherit+0xa8>
    12fa:	24 85       	ldd	r18, Z+12	; 0x0c
    12fc:	35 85       	ldd	r19, Z+13	; 0x0d
    12fe:	37 fd       	sbrc	r19, 7
    1300:	0c c0       	rjmp	.+24     	; 0x131a <vTaskPriorityInherit+0x44>
    1302:	a0 91 6d 05 	lds	r26, 0x056D	; 0x80056d <pxCurrentTCB>
    1306:	b0 91 6e 05 	lds	r27, 0x056E	; 0x80056e <pxCurrentTCB+0x1>
    130a:	56 96       	adiw	r26, 0x16	; 22
    130c:	9c 91       	ld	r25, X
    130e:	24 e0       	ldi	r18, 0x04	; 4
    1310:	30 e0       	ldi	r19, 0x00	; 0
    1312:	29 1b       	sub	r18, r25
    1314:	31 09       	sbc	r19, r1
    1316:	35 87       	std	Z+13, r19	; 0x0d
    1318:	24 87       	std	Z+12, r18	; 0x0c
    131a:	29 e0       	ldi	r18, 0x09	; 9
    131c:	82 9f       	mul	r24, r18
    131e:	c0 01       	movw	r24, r0
    1320:	11 24       	eor	r1, r1
    1322:	87 5b       	subi	r24, 0xB7	; 183
    1324:	9a 4f       	sbci	r25, 0xFA	; 250
    1326:	22 85       	ldd	r18, Z+10	; 0x0a
    1328:	33 85       	ldd	r19, Z+11	; 0x0b
    132a:	28 17       	cp	r18, r24
    132c:	39 07       	cpc	r19, r25
    132e:	01 f5       	brne	.+64     	; 0x1370 <vTaskPriorityInherit+0x9a>
    1330:	8f 01       	movw	r16, r30
    1332:	ef 01       	movw	r28, r30
    1334:	22 96       	adiw	r28, 0x02	; 2
    1336:	ce 01       	movw	r24, r28
    1338:	0e 94 e8 01 	call	0x3d0	; 0x3d0 <uxListRemove>
    133c:	e0 91 6d 05 	lds	r30, 0x056D	; 0x80056d <pxCurrentTCB>
    1340:	f0 91 6e 05 	lds	r31, 0x056E	; 0x80056e <pxCurrentTCB+0x1>
    1344:	86 89       	ldd	r24, Z+22	; 0x16
    1346:	f8 01       	movw	r30, r16
    1348:	86 8b       	std	Z+22, r24	; 0x16
    134a:	90 91 1c 05 	lds	r25, 0x051C	; 0x80051c <uxTopReadyPriority>
    134e:	98 17       	cp	r25, r24
    1350:	10 f4       	brcc	.+4      	; 0x1356 <vTaskPriorityInherit+0x80>
    1352:	80 93 1c 05 	sts	0x051C, r24	; 0x80051c <uxTopReadyPriority>
    1356:	f9 e0       	ldi	r31, 0x09	; 9
    1358:	8f 9f       	mul	r24, r31
    135a:	c0 01       	movw	r24, r0
    135c:	11 24       	eor	r1, r1
    135e:	be 01       	movw	r22, r28
    1360:	87 5b       	subi	r24, 0xB7	; 183
    1362:	9a 4f       	sbci	r25, 0xFA	; 250
    1364:	df 91       	pop	r29
    1366:	cf 91       	pop	r28
    1368:	1f 91       	pop	r17
    136a:	0f 91       	pop	r16
    136c:	0c 94 8f 01 	jmp	0x31e	; 0x31e <vListInsertEnd>
    1370:	a0 91 6d 05 	lds	r26, 0x056D	; 0x80056d <pxCurrentTCB>
    1374:	b0 91 6e 05 	lds	r27, 0x056E	; 0x80056e <pxCurrentTCB+0x1>
    1378:	56 96       	adiw	r26, 0x16	; 22
    137a:	8c 91       	ld	r24, X
    137c:	86 8b       	std	Z+22, r24	; 0x16
    137e:	df 91       	pop	r29
    1380:	cf 91       	pop	r28
    1382:	1f 91       	pop	r17
    1384:	0f 91       	pop	r16
    1386:	08 95       	ret

00001388 <xTaskPriorityDisinherit>:
    1388:	0f 93       	push	r16
    138a:	1f 93       	push	r17
    138c:	cf 93       	push	r28
    138e:	df 93       	push	r29
    1390:	fc 01       	movw	r30, r24
    1392:	89 2b       	or	r24, r25
    1394:	11 f4       	brne	.+4      	; 0x139a <xTaskPriorityDisinherit+0x12>
    1396:	80 e0       	ldi	r24, 0x00	; 0
    1398:	2c c0       	rjmp	.+88     	; 0x13f2 <xTaskPriorityDisinherit+0x6a>
    139a:	86 a5       	ldd	r24, Z+46	; 0x2e
    139c:	81 50       	subi	r24, 0x01	; 1
    139e:	86 a7       	std	Z+46, r24	; 0x2e
    13a0:	26 89       	ldd	r18, Z+22	; 0x16
    13a2:	95 a5       	ldd	r25, Z+45	; 0x2d
    13a4:	29 17       	cp	r18, r25
    13a6:	b9 f3       	breq	.-18     	; 0x1396 <xTaskPriorityDisinherit+0xe>
    13a8:	81 11       	cpse	r24, r1
    13aa:	f5 cf       	rjmp	.-22     	; 0x1396 <xTaskPriorityDisinherit+0xe>
    13ac:	ef 01       	movw	r28, r30
    13ae:	8f 01       	movw	r16, r30
    13b0:	0e 5f       	subi	r16, 0xFE	; 254
    13b2:	1f 4f       	sbci	r17, 0xFF	; 255
    13b4:	c8 01       	movw	r24, r16
    13b6:	0e 94 e8 01 	call	0x3d0	; 0x3d0 <uxListRemove>
    13ba:	8d a5       	ldd	r24, Y+45	; 0x2d
    13bc:	8e 8b       	std	Y+22, r24	; 0x16
    13be:	48 2f       	mov	r20, r24
    13c0:	50 e0       	ldi	r21, 0x00	; 0
    13c2:	24 e0       	ldi	r18, 0x04	; 4
    13c4:	30 e0       	ldi	r19, 0x00	; 0
    13c6:	24 1b       	sub	r18, r20
    13c8:	35 0b       	sbc	r19, r21
    13ca:	3d 87       	std	Y+13, r19	; 0x0d
    13cc:	2c 87       	std	Y+12, r18	; 0x0c
    13ce:	90 91 1c 05 	lds	r25, 0x051C	; 0x80051c <uxTopReadyPriority>
    13d2:	98 17       	cp	r25, r24
    13d4:	10 f4       	brcc	.+4      	; 0x13da <xTaskPriorityDisinherit+0x52>
    13d6:	80 93 1c 05 	sts	0x051C, r24	; 0x80051c <uxTopReadyPriority>
    13da:	29 e0       	ldi	r18, 0x09	; 9
    13dc:	24 9f       	mul	r18, r20
    13de:	c0 01       	movw	r24, r0
    13e0:	25 9f       	mul	r18, r21
    13e2:	90 0d       	add	r25, r0
    13e4:	11 24       	eor	r1, r1
    13e6:	b8 01       	movw	r22, r16
    13e8:	87 5b       	subi	r24, 0xB7	; 183
    13ea:	9a 4f       	sbci	r25, 0xFA	; 250
    13ec:	0e 94 8f 01 	call	0x31e	; 0x31e <vListInsertEnd>
    13f0:	81 e0       	ldi	r24, 0x01	; 1
    13f2:	df 91       	pop	r29
    13f4:	cf 91       	pop	r28
    13f6:	1f 91       	pop	r17
    13f8:	0f 91       	pop	r16
    13fa:	08 95       	ret

000013fc <pvTaskIncrementMutexHeldCount>:
    13fc:	80 91 6d 05 	lds	r24, 0x056D	; 0x80056d <pxCurrentTCB>
    1400:	90 91 6e 05 	lds	r25, 0x056E	; 0x80056e <pxCurrentTCB+0x1>
    1404:	89 2b       	or	r24, r25
    1406:	39 f0       	breq	.+14     	; 0x1416 <pvTaskIncrementMutexHeldCount+0x1a>
    1408:	e0 91 6d 05 	lds	r30, 0x056D	; 0x80056d <pxCurrentTCB>
    140c:	f0 91 6e 05 	lds	r31, 0x056E	; 0x80056e <pxCurrentTCB+0x1>
    1410:	86 a5       	ldd	r24, Z+46	; 0x2e
    1412:	8f 5f       	subi	r24, 0xFF	; 255
    1414:	86 a7       	std	Z+46, r24	; 0x2e
    1416:	80 91 6d 05 	lds	r24, 0x056D	; 0x80056d <pxCurrentTCB>
    141a:	90 91 6e 05 	lds	r25, 0x056E	; 0x80056e <pxCurrentTCB+0x1>
    141e:	08 95       	ret

00001420 <T_T1>:
    1420:	20 e0       	ldi	r18, 0x00	; 0
    1422:	48 ee       	ldi	r20, 0xE8	; 232
    1424:	53 e0       	ldi	r21, 0x03	; 3
    1426:	60 e0       	ldi	r22, 0x00	; 0
    1428:	70 e0       	ldi	r23, 0x00	; 0
    142a:	80 91 6f 05 	lds	r24, 0x056F	; 0x80056f <mResourceAvailability>
    142e:	90 91 70 05 	lds	r25, 0x0570	; 0x800570 <mResourceAvailability+0x1>
    1432:	0e 94 d8 04 	call	0x9b0	; 0x9b0 <xQueueGenericReceive>
    1436:	88 23       	and	r24, r24
    1438:	99 f3       	breq	.-26     	; 0x1420 <T_T1>
    143a:	87 e6       	ldi	r24, 0x67	; 103
    143c:	90 e0       	ldi	r25, 0x00	; 0
    143e:	0e 94 3e 01 	call	0x27c	; 0x27c <Uart_SendStr>
    1442:	87 e6       	ldi	r24, 0x67	; 103
    1444:	90 e0       	ldi	r25, 0x00	; 0
    1446:	0e 94 3e 01 	call	0x27c	; 0x27c <Uart_SendStr>
    144a:	20 e0       	ldi	r18, 0x00	; 0
    144c:	40 e0       	ldi	r20, 0x00	; 0
    144e:	50 e0       	ldi	r21, 0x00	; 0
    1450:	60 e0       	ldi	r22, 0x00	; 0
    1452:	70 e0       	ldi	r23, 0x00	; 0
    1454:	80 91 6f 05 	lds	r24, 0x056F	; 0x80056f <mResourceAvailability>
    1458:	90 91 70 05 	lds	r25, 0x0570	; 0x800570 <mResourceAvailability+0x1>
    145c:	0e 94 12 04 	call	0x824	; 0x824 <xQueueGenericSend>
    1460:	df cf       	rjmp	.-66     	; 0x1420 <T_T1>

00001462 <T_T2>:
    1462:	20 e0       	ldi	r18, 0x00	; 0
    1464:	48 ee       	ldi	r20, 0xE8	; 232
    1466:	53 e0       	ldi	r21, 0x03	; 3
    1468:	60 e0       	ldi	r22, 0x00	; 0
    146a:	70 e0       	ldi	r23, 0x00	; 0
    146c:	80 91 6f 05 	lds	r24, 0x056F	; 0x80056f <mResourceAvailability>
    1470:	90 91 70 05 	lds	r25, 0x0570	; 0x800570 <mResourceAvailability+0x1>
    1474:	0e 94 d8 04 	call	0x9b0	; 0x9b0 <xQueueGenericReceive>
    1478:	88 23       	and	r24, r24
    147a:	99 f0       	breq	.+38     	; 0x14a2 <T_T2+0x40>
    147c:	80 e7       	ldi	r24, 0x70	; 112
    147e:	90 e0       	ldi	r25, 0x00	; 0
    1480:	0e 94 3e 01 	call	0x27c	; 0x27c <Uart_SendStr>
    1484:	8d e7       	ldi	r24, 0x7D	; 125
    1486:	90 e0       	ldi	r25, 0x00	; 0
    1488:	0e 94 3e 01 	call	0x27c	; 0x27c <Uart_SendStr>
    148c:	20 e0       	ldi	r18, 0x00	; 0
    148e:	40 e0       	ldi	r20, 0x00	; 0
    1490:	50 e0       	ldi	r21, 0x00	; 0
    1492:	60 e0       	ldi	r22, 0x00	; 0
    1494:	70 e0       	ldi	r23, 0x00	; 0
    1496:	80 91 6f 05 	lds	r24, 0x056F	; 0x80056f <mResourceAvailability>
    149a:	90 91 70 05 	lds	r25, 0x0570	; 0x800570 <mResourceAvailability+0x1>
    149e:	0e 94 12 04 	call	0x824	; 0x824 <xQueueGenericSend>
    14a2:	85 e0       	ldi	r24, 0x05	; 5
    14a4:	90 e0       	ldi	r25, 0x00	; 0
    14a6:	0e 94 33 08 	call	0x1066	; 0x1066 <vTaskDelay>
    14aa:	db cf       	rjmp	.-74     	; 0x1462 <T_T2>

000014ac <system_init>:
    14ac:	0e 94 56 00 	call	0xac	; 0xac <Leds_AllInit>
    14b0:	0e 94 e3 00 	call	0x1c6	; 0x1c6 <LCD_Init>
    14b4:	4a e8       	ldi	r20, 0x8A	; 138
    14b6:	50 e0       	ldi	r21, 0x00	; 0
    14b8:	61 e0       	ldi	r22, 0x01	; 1
    14ba:	81 e0       	ldi	r24, 0x01	; 1
    14bc:	0e 94 12 01 	call	0x224	; 0x224 <LCD_DispStrXY>
    14c0:	0e 94 5b 00 	call	0xb6	; 0xb6 <Key_Init>
    14c4:	60 e8       	ldi	r22, 0x80	; 128
    14c6:	75 e2       	ldi	r23, 0x25	; 37
    14c8:	80 e0       	ldi	r24, 0x00	; 0
    14ca:	90 e0       	ldi	r25, 0x00	; 0
    14cc:	0e 94 1c 01 	call	0x238	; 0x238 <Uart_Init>
    14d0:	8a e8       	ldi	r24, 0x8A	; 138
    14d2:	90 e0       	ldi	r25, 0x00	; 0
    14d4:	0c 94 3e 01 	jmp	0x27c	; 0x27c <Uart_SendStr>

000014d8 <main>:
    14d8:	af 92       	push	r10
    14da:	bf 92       	push	r11
    14dc:	cf 92       	push	r12
    14de:	df 92       	push	r13
    14e0:	ef 92       	push	r14
    14e2:	ff 92       	push	r15
    14e4:	0f 93       	push	r16
    14e6:	0e 94 56 0a 	call	0x14ac	; 0x14ac <system_init>
    14ea:	81 e0       	ldi	r24, 0x01	; 1
    14ec:	0e 94 ac 04 	call	0x958	; 0x958 <xQueueCreateMutex>
    14f0:	90 93 70 05 	sts	0x0570, r25	; 0x800570 <mResourceAvailability+0x1>
    14f4:	80 93 6f 05 	sts	0x056F, r24	; 0x80056f <mResourceAvailability>
    14f8:	a1 2c       	mov	r10, r1
    14fa:	b1 2c       	mov	r11, r1
    14fc:	c1 2c       	mov	r12, r1
    14fe:	d1 2c       	mov	r13, r1
    1500:	e1 2c       	mov	r14, r1
    1502:	f1 2c       	mov	r15, r1
    1504:	01 e0       	ldi	r16, 0x01	; 1
    1506:	20 e0       	ldi	r18, 0x00	; 0
    1508:	30 e0       	ldi	r19, 0x00	; 0
    150a:	44 e6       	ldi	r20, 0x64	; 100
    150c:	50 e0       	ldi	r21, 0x00	; 0
    150e:	60 e0       	ldi	r22, 0x00	; 0
    1510:	70 e0       	ldi	r23, 0x00	; 0
    1512:	80 e1       	ldi	r24, 0x10	; 16
    1514:	9a e0       	ldi	r25, 0x0A	; 10
    1516:	0e 94 e6 05 	call	0xbcc	; 0xbcc <xTaskGenericCreate>
    151a:	02 e0       	ldi	r16, 0x02	; 2
    151c:	20 e0       	ldi	r18, 0x00	; 0
    151e:	30 e0       	ldi	r19, 0x00	; 0
    1520:	44 e6       	ldi	r20, 0x64	; 100
    1522:	50 e0       	ldi	r21, 0x00	; 0
    1524:	60 e0       	ldi	r22, 0x00	; 0
    1526:	70 e0       	ldi	r23, 0x00	; 0
    1528:	81 e3       	ldi	r24, 0x31	; 49
    152a:	9a e0       	ldi	r25, 0x0A	; 10
    152c:	0e 94 e6 05 	call	0xbcc	; 0xbcc <xTaskGenericCreate>
    1530:	0e 94 dc 06 	call	0xdb8	; 0xdb8 <vTaskStartScheduler>
    1534:	80 e0       	ldi	r24, 0x00	; 0
    1536:	90 e0       	ldi	r25, 0x00	; 0
    1538:	0f 91       	pop	r16
    153a:	ff 90       	pop	r15
    153c:	ef 90       	pop	r14
    153e:	df 90       	pop	r13
    1540:	cf 90       	pop	r12
    1542:	bf 90       	pop	r11
    1544:	af 90       	pop	r10
    1546:	08 95       	ret

00001548 <__udivmodsi4>:
    1548:	a1 e2       	ldi	r26, 0x21	; 33
    154a:	1a 2e       	mov	r1, r26
    154c:	aa 1b       	sub	r26, r26
    154e:	bb 1b       	sub	r27, r27
    1550:	fd 01       	movw	r30, r26
    1552:	0d c0       	rjmp	.+26     	; 0x156e <__udivmodsi4_ep>

00001554 <__udivmodsi4_loop>:
    1554:	aa 1f       	adc	r26, r26
    1556:	bb 1f       	adc	r27, r27
    1558:	ee 1f       	adc	r30, r30
    155a:	ff 1f       	adc	r31, r31
    155c:	a2 17       	cp	r26, r18
    155e:	b3 07       	cpc	r27, r19
    1560:	e4 07       	cpc	r30, r20
    1562:	f5 07       	cpc	r31, r21
    1564:	20 f0       	brcs	.+8      	; 0x156e <__udivmodsi4_ep>
    1566:	a2 1b       	sub	r26, r18
    1568:	b3 0b       	sbc	r27, r19
    156a:	e4 0b       	sbc	r30, r20
    156c:	f5 0b       	sbc	r31, r21

0000156e <__udivmodsi4_ep>:
    156e:	66 1f       	adc	r22, r22
    1570:	77 1f       	adc	r23, r23
    1572:	88 1f       	adc	r24, r24
    1574:	99 1f       	adc	r25, r25
    1576:	1a 94       	dec	r1
    1578:	69 f7       	brne	.-38     	; 0x1554 <__udivmodsi4_loop>
    157a:	60 95       	com	r22
    157c:	70 95       	com	r23
    157e:	80 95       	com	r24
    1580:	90 95       	com	r25
    1582:	9b 01       	movw	r18, r22
    1584:	ac 01       	movw	r20, r24
    1586:	bd 01       	movw	r22, r26
    1588:	cf 01       	movw	r24, r30
    158a:	08 95       	ret

0000158c <memcpy>:
    158c:	fb 01       	movw	r30, r22
    158e:	dc 01       	movw	r26, r24
    1590:	02 c0       	rjmp	.+4      	; 0x1596 <memcpy+0xa>
    1592:	01 90       	ld	r0, Z+
    1594:	0d 92       	st	X+, r0
    1596:	41 50       	subi	r20, 0x01	; 1
    1598:	50 40       	sbci	r21, 0x00	; 0
    159a:	d8 f7       	brcc	.-10     	; 0x1592 <memcpy+0x6>
    159c:	08 95       	ret

0000159e <_exit>:
    159e:	f8 94       	cli

000015a0 <__stop_program>:
    15a0:	ff cf       	rjmp	.-2      	; 0x15a0 <__stop_program>
